Component: ARM Compiler 5.06 update 1 (build 61) Tool: armlink [4d35a8]

==============================================================================

Section Cross References

    startup_stm32f10x_hd.o(RESET) refers to startup_stm32f10x_hd.o(STACK) for __initial_sp
    startup_stm32f10x_hd.o(RESET) refers to startup_stm32f10x_hd.o(.text) for Reset_Handler
    startup_stm32f10x_hd.o(RESET) refers to stm32f10x_it.o(i.NMI_Handler) for NMI_Handler
    startup_stm32f10x_hd.o(RESET) refers to stm32f10x_it.o(i.HardFault_Handler) for HardFault_Handler
    startup_stm32f10x_hd.o(RESET) refers to stm32f10x_it.o(i.MemManage_Handler) for MemManage_Handler
    startup_stm32f10x_hd.o(RESET) refers to stm32f10x_it.o(i.BusFault_Handler) for BusFault_Handler
    startup_stm32f10x_hd.o(RESET) refers to stm32f10x_it.o(i.UsageFault_Handler) for UsageFault_Handler
    startup_stm32f10x_hd.o(RESET) refers to stm32f10x_it.o(i.SVC_Handler) for SVC_Handler
    startup_stm32f10x_hd.o(RESET) refers to stm32f10x_it.o(i.DebugMon_Handler) for DebugMon_Handler
    startup_stm32f10x_hd.o(RESET) refers to stm32f10x_it.o(i.PendSV_Handler) for PendSV_Handler
    startup_stm32f10x_hd.o(RESET) refers to stm32f10x_it.o(i.SysTick_Handler) for SysTick_Handler
    startup_stm32f10x_hd.o(RESET) refers to stm32f10x_it.o(i.EXTI0_IRQHandler) for EXTI0_IRQHandler
    startup_stm32f10x_hd.o(RESET) refers to stm32f10x_it.o(i.DMA1_Channel3_IRQHandler) for DMA1_Channel3_IRQHandler
    startup_stm32f10x_hd.o(RESET) refers to stm32f10x_it.o(i.TIM4_IRQHandler) for TIM4_IRQHandler
    startup_stm32f10x_hd.o(RESET) refers to stm32f10x_it.o(i.USART1_IRQHandler) for USART1_IRQHandler
    startup_stm32f10x_hd.o(RESET) refers to stm32f10x_it.o(i.USART2_IRQHandler) for USART2_IRQHandler
    startup_stm32f10x_hd.o(RESET) refers to stm32f10x_it.o(i.EXTI15_10_IRQHandler) for EXTI15_10_IRQHandler
    startup_stm32f10x_hd.o(.text) refers to system_stm32f10x.o(i.SystemInit) for SystemInit
    startup_stm32f10x_hd.o(.text) refers to entry.o(.ARM.Collect$$$$00000000) for __main
    system_stm32f10x.o(i.SetSysClock) refers to system_stm32f10x.o(i.SetSysClockTo72) for SetSysClockTo72
    system_stm32f10x.o(i.SystemCoreClockUpdate) refers to system_stm32f10x.o(.data) for .data
    system_stm32f10x.o(i.SystemInit) refers to system_stm32f10x.o(i.SetSysClock) for SetSysClock
    stm32f10x_gpio.o(i.GPIO_AFIODeInit) refers to stm32f10x_rcc.o(i.RCC_APB2PeriphResetCmd) for RCC_APB2PeriphResetCmd
    stm32f10x_gpio.o(i.GPIO_DeInit) refers to stm32f10x_rcc.o(i.RCC_APB2PeriphResetCmd) for RCC_APB2PeriphResetCmd
    stm32f10x_i2c.o(i.I2C_DeInit) refers to stm32f10x_rcc.o(i.RCC_APB1PeriphResetCmd) for RCC_APB1PeriphResetCmd
    stm32f10x_i2c.o(i.I2C_Init) refers to stm32f10x_rcc.o(i.RCC_GetClocksFreq) for RCC_GetClocksFreq
    stm32f10x_rcc.o(i.RCC_GetClocksFreq) refers to stm32f10x_rcc.o(.data) for .data
    stm32f10x_rcc.o(i.RCC_WaitForHSEStartUp) refers to stm32f10x_rcc.o(i.RCC_GetFlagStatus) for RCC_GetFlagStatus
    stm32f10x_tim.o(i.TIM_DeInit) refers to stm32f10x_rcc.o(i.RCC_APB2PeriphResetCmd) for RCC_APB2PeriphResetCmd
    stm32f10x_tim.o(i.TIM_DeInit) refers to stm32f10x_rcc.o(i.RCC_APB1PeriphResetCmd) for RCC_APB1PeriphResetCmd
    stm32f10x_tim.o(i.TIM_ETRClockMode1Config) refers to stm32f10x_tim.o(i.TIM_ETRConfig) for TIM_ETRConfig
    stm32f10x_tim.o(i.TIM_ETRClockMode2Config) refers to stm32f10x_tim.o(i.TIM_ETRConfig) for TIM_ETRConfig
    stm32f10x_tim.o(i.TIM_ICInit) refers to stm32f10x_tim.o(i.TI4_Config) for TI4_Config
    stm32f10x_tim.o(i.TIM_ICInit) refers to stm32f10x_tim.o(i.TIM_SetIC4Prescaler) for TIM_SetIC4Prescaler
    stm32f10x_tim.o(i.TIM_ICInit) refers to stm32f10x_tim.o(i.TI1_Config) for TI1_Config
    stm32f10x_tim.o(i.TIM_ICInit) refers to stm32f10x_tim.o(i.TIM_SetIC1Prescaler) for TIM_SetIC1Prescaler
    stm32f10x_tim.o(i.TIM_ICInit) refers to stm32f10x_tim.o(i.TI2_Config) for TI2_Config
    stm32f10x_tim.o(i.TIM_ICInit) refers to stm32f10x_tim.o(i.TIM_SetIC2Prescaler) for TIM_SetIC2Prescaler
    stm32f10x_tim.o(i.TIM_ICInit) refers to stm32f10x_tim.o(i.TI3_Config) for TI3_Config
    stm32f10x_tim.o(i.TIM_ICInit) refers to stm32f10x_tim.o(i.TIM_SetIC3Prescaler) for TIM_SetIC3Prescaler
    stm32f10x_tim.o(i.TIM_ITRxExternalClockConfig) refers to stm32f10x_tim.o(i.TIM_SelectInputTrigger) for TIM_SelectInputTrigger
    stm32f10x_tim.o(i.TIM_PWMIConfig) refers to stm32f10x_tim.o(i.TI2_Config) for TI2_Config
    stm32f10x_tim.o(i.TIM_PWMIConfig) refers to stm32f10x_tim.o(i.TIM_SetIC2Prescaler) for TIM_SetIC2Prescaler
    stm32f10x_tim.o(i.TIM_PWMIConfig) refers to stm32f10x_tim.o(i.TI1_Config) for TI1_Config
    stm32f10x_tim.o(i.TIM_PWMIConfig) refers to stm32f10x_tim.o(i.TIM_SetIC1Prescaler) for TIM_SetIC1Prescaler
    stm32f10x_tim.o(i.TIM_TIxExternalClockConfig) refers to stm32f10x_tim.o(i.TI1_Config) for TI1_Config
    stm32f10x_tim.o(i.TIM_TIxExternalClockConfig) refers to stm32f10x_tim.o(i.TIM_SelectInputTrigger) for TIM_SelectInputTrigger
    stm32f10x_tim.o(i.TIM_TIxExternalClockConfig) refers to stm32f10x_tim.o(i.TI2_Config) for TI2_Config
    stm32f10x_usart.o(i.USART_DeInit) refers to stm32f10x_rcc.o(i.RCC_APB2PeriphResetCmd) for RCC_APB2PeriphResetCmd
    stm32f10x_usart.o(i.USART_DeInit) refers to stm32f10x_rcc.o(i.RCC_APB1PeriphResetCmd) for RCC_APB1PeriphResetCmd
    stm32f10x_usart.o(i.USART_Init) refers to stm32f10x_rcc.o(i.RCC_GetClocksFreq) for RCC_GetClocksFreq
    main.o(i.main) refers to bsp_systick.o(i.SysTick_Init) for SysTick_Init
    main.o(i.main) refers to bsp_usart1.o(i.USART1_Config) for USART1_Config
    main.o(i.main) refers to bsp_usart2.o(i.USART2_Config) for USART2_Config
    main.o(i.main) refers to gps_config.o(i.GPS_Config) for GPS_Config
    main.o(i.main) refers to bsp_dht11.o(i.DHT11_Init) for DHT11_Init
    main.o(i.main) refers to bsp_exti.o(i.EXTI_Key_Config) for EXTI_Key_Config
    main.o(i.main) refers to bsp_led.o(i.LED_GPIO_Config) for LED_GPIO_Config
    main.o(i.main) refers to mlx90614.o(i.SMBus_Init) for SMBus_Init
    main.o(i.main) refers to oled_i2c.o(i.I2C_Configuration) for I2C_Configuration
    main.o(i.main) refers to oled_i2c.o(i.OLED_Init) for OLED_Init
    main.o(i.main) refers to printfa.o(i.__0printf) for __2printf
    main.o(i.main) refers to oled_i2c.o(i.OLED_Fill) for OLED_Fill
    main.o(i.main) refers to bsp_systick.o(i.Delay_ms) for Delay_ms
    main.o(i.main) refers to oled_i2c.o(i.OLED_ShowCN) for OLED_ShowCN
    main.o(i.main) refers to oled_i2c.o(i.OLED_ShowStr) for OLED_ShowStr
    main.o(i.main) refers to oled_i2c.o(i.OLED_ShowCN2) for OLED_ShowCN2
    main.o(i.main) refers to bsp_ec20.o(i.EC20_INIT) for EC20_INIT
    main.o(i.main) refers to main.o(i.NVIC_SystemReset) for NVIC_SystemReset
    main.o(i.main) refers to bsp_ec20.o(i.EC20_CONNECT_SERVER_CFG_INFOR) for EC20_CONNECT_SERVER_CFG_INFOR
    main.o(i.main) refers to nema_decode_test.o(i.nmea_decode_test) for nmea_decode_test
    main.o(i.main) refers to main.o(.data) for .data
    stm32f10x_it.o(i.DMA1_Channel3_IRQHandler) refers to stm32f10x_it.o(i.GPS_ProcessDMAIRQ) for GPS_ProcessDMAIRQ
    stm32f10x_it.o(i.EXTI0_IRQHandler) refers to stm32f10x_exti.o(i.EXTI_GetITStatus) for EXTI_GetITStatus
    stm32f10x_it.o(i.EXTI0_IRQHandler) refers to printfa.o(i.__0printf) for __2printf
    stm32f10x_it.o(i.EXTI0_IRQHandler) refers to stm32f10x_exti.o(i.EXTI_ClearITPendingBit) for EXTI_ClearITPendingBit
    stm32f10x_it.o(i.EXTI0_IRQHandler) refers to stm32f10x_it.o(.data) for .data
    stm32f10x_it.o(i.EXTI15_10_IRQHandler) refers to stm32f10x_exti.o(i.EXTI_GetITStatus) for EXTI_GetITStatus
    stm32f10x_it.o(i.EXTI15_10_IRQHandler) refers to printfa.o(i.__0printf) for __2printf
    stm32f10x_it.o(i.EXTI15_10_IRQHandler) refers to stm32f10x_exti.o(i.EXTI_ClearITPendingBit) for EXTI_ClearITPendingBit
    stm32f10x_it.o(i.EXTI15_10_IRQHandler) refers to stm32f10x_it.o(.data) for .data
    stm32f10x_it.o(i.GPS_ProcessDMAIRQ) refers to stm32f10x_dma.o(i.DMA_GetITStatus) for DMA_GetITStatus
    stm32f10x_it.o(i.GPS_ProcessDMAIRQ) refers to stm32f10x_dma.o(i.DMA_ClearFlag) for DMA_ClearFlag
    stm32f10x_it.o(i.GPS_ProcessDMAIRQ) refers to gps_config.o(.data) for GPS_HalfTransferEnd
    stm32f10x_it.o(i.GPS_ProcessDMAIRQ) refers to gps_config.o(.data) for GPS_TransferEnd
    stm32f10x_it.o(i.SysTick_Handler) refers to bsp_systick.o(i.TimingDelay_Decrement) for TimingDelay_Decrement
    stm32f10x_it.o(i.TIM4_IRQHandler) refers to stm32f10x_tim.o(i.TIM_GetITStatus) for TIM_GetITStatus
    stm32f10x_it.o(i.TIM4_IRQHandler) refers to stm32f10x_tim.o(i.TIM_ClearITPendingBit) for TIM_ClearITPendingBit
    stm32f10x_it.o(i.TIM4_IRQHandler) refers to bsp_tim.o(i.TIM4_Set) for TIM4_Set
    stm32f10x_it.o(i.TIM4_IRQHandler) refers to bsp_usart2.o(.data) for USART2_RX_STA
    stm32f10x_it.o(i.USART1_IRQHandler) refers to stm32f10x_usart.o(i.USART_GetFlagStatus) for USART_GetFlagStatus
    stm32f10x_it.o(i.USART1_IRQHandler) refers to stm32f10x_usart.o(i.USART_ReceiveData) for USART_ReceiveData
    stm32f10x_it.o(i.USART1_IRQHandler) refers to bsp_usart1.o(.data) for USART1_RX_STA
    stm32f10x_it.o(i.USART1_IRQHandler) refers to bsp_usart1.o(.bss) for USART1_RX_BUF
    stm32f10x_it.o(i.USART2_IRQHandler) refers to stm32f10x_usart.o(i.USART_GetITStatus) for USART_GetITStatus
    stm32f10x_it.o(i.USART2_IRQHandler) refers to stm32f10x_usart.o(i.USART_ReceiveData) for USART_ReceiveData
    stm32f10x_it.o(i.USART2_IRQHandler) refers to stm32f10x_tim.o(i.TIM_SetCounter) for TIM_SetCounter
    stm32f10x_it.o(i.USART2_IRQHandler) refers to bsp_tim.o(i.TIM4_Set) for TIM4_Set
    stm32f10x_it.o(i.USART2_IRQHandler) refers to bsp_usart2.o(.data) for USART2_RX_STA
    stm32f10x_it.o(i.USART2_IRQHandler) refers to bsp_usart2.o(.bss) for USART2_RX_BUF
    nema_decode_test.o(i.nmea_decode_test) refers to context.o(i.nmea_property) for nmea_property
    nema_decode_test.o(i.nmea_decode_test) refers to info.o(i.nmea_zero_INFO) for nmea_zero_INFO
    nema_decode_test.o(i.nmea_decode_test) refers to parser.o(i.nmea_parser_init) for nmea_parser_init
    nema_decode_test.o(i.nmea_decode_test) refers to parser.o(i.nmea_parse) for nmea_parse
    nema_decode_test.o(i.nmea_decode_test) refers to gps_config.o(i.GMTconvert) for GMTconvert
    nema_decode_test.o(i.nmea_decode_test) refers to gmath.o(i.nmea_ndeg2degree) for nmea_ndeg2degree
    nema_decode_test.o(i.nmea_decode_test) refers to printfa.o(i.__0printf) for __2printf
    nema_decode_test.o(i.nmea_decode_test) refers to bsp_ec20.o(i.EC20_MQTT_SEND_AUTO) for EC20_MQTT_SEND_AUTO
    nema_decode_test.o(i.nmea_decode_test) refers to bsp_systick.o(i.Delay_ms) for Delay_ms
    nema_decode_test.o(i.nmea_decode_test) refers to bsp_ec20.o(i.check_cmd) for check_cmd
    nema_decode_test.o(i.nmea_decode_test) refers to memseta.o(.text) for __aeabi_memclr
    nema_decode_test.o(i.nmea_decode_test) refers to mlx90614.o(i.SMBus_ReadTemp) for SMBus_ReadTemp
    nema_decode_test.o(i.nmea_decode_test) refers to f2d.o(.text) for __aeabi_f2d
    nema_decode_test.o(i.nmea_decode_test) refers to oled_i2c.o(i.OLED_ShowStr) for OLED_ShowStr
    nema_decode_test.o(i.nmea_decode_test) refers to oled_i2c.o(i.OLED_Show_num) for OLED_Show_num
    nema_decode_test.o(i.nmea_decode_test) refers to oled_i2c.o(i.OLED_ShowCN3) for OLED_ShowCN3
    nema_decode_test.o(i.nmea_decode_test) refers to gps_config.o(i.trace) for trace
    nema_decode_test.o(i.nmea_decode_test) refers to gps_config.o(i.error) for error
    nema_decode_test.o(i.nmea_decode_test) refers to gps_config.o(i.gps_info) for gps_info
    nema_decode_test.o(i.nmea_decode_test) refers to gps_config.o(.data) for GPS_HalfTransferEnd
    nema_decode_test.o(i.nmea_decode_test) refers to gps_config.o(.data) for GPS_TransferEnd
    nema_decode_test.o(i.nmea_decode_test) refers to bsp_usart2.o(.data) for USART2_RX_STA
    nema_decode_test.o(i.nmea_decode_test) refers to nema_decode_test.o(.data) for .data
    nema_decode_test.o(i.nmea_decode_test) refers to gps_config.o(.bss) for gps_rbuff
    nema_decode_test.o(i.nmea_decode_test) refers to bsp_usart2.o(.bss) for USART2_RX_BUF
    bsp_systick.o(i.Delay_ms) refers to bsp_systick.o(i.SysTick_Init) for SysTick_Init
    bsp_systick.o(i.Delay_ms) refers to bsp_systick.o(.data) for .data
    bsp_systick.o(i.SysTick_Delay_ms) refers to bsp_systick.o(i.SysTick_Config) for SysTick_Config
    bsp_systick.o(i.SysTick_Delay_us) refers to bsp_systick.o(i.SysTick_Config) for SysTick_Config
    bsp_systick.o(i.SysTick_Init) refers to bsp_systick.o(i.SysTick_Config) for SysTick_Config
    bsp_systick.o(i.TimingDelay_Decrement) refers to bsp_systick.o(.data) for .data
    core_delay.o(i.CPU_TS_Tmr_Delay_US) refers to core_delay.o(i.CPU_TS_TmrInit) for CPU_TS_TmrInit
    core_delay.o(i.CPU_TS_Tmr_Delay_US) refers to core_delay.o(i.CPU_TS_TmrRd) for CPU_TS_TmrRd
    core_delay.o(i.CPU_TS_Tmr_Delay_US) refers to system_stm32f10x.o(.data) for SystemCoreClock
    bsp_dma.o(i.DMA_USARTx_TX_Config) refers to stm32f10x_rcc.o(i.RCC_AHBPeriphClockCmd) for RCC_AHBPeriphClockCmd
    bsp_dma.o(i.DMA_USARTx_TX_Config) refers to stm32f10x_dma.o(i.DMA_DeInit) for DMA_DeInit
    bsp_dma.o(i.DMA_USARTx_TX_Config) refers to stm32f10x_dma.o(i.DMA_Init) for DMA_Init
    bsp_dma.o(i.DMA_USARTx_TX_Config) refers to stm32f10x_dma.o(i.DMA_ClearFlag) for DMA_ClearFlag
    bsp_dma.o(i.DMA_USARTx_TX_Config) refers to stm32f10x_dma.o(i.DMA_Cmd) for DMA_Cmd
    bsp_dma.o(i.DMA_USARTx_TX_Config) refers to bsp_usart2.o(.bss) for USART2_TX_BUF
    bsp_dma.o(i.UART_DMA_Enable) refers to stm32f10x_dma.o(i.DMA_Cmd) for DMA_Cmd
    bsp_dma.o(i.UART_DMA_Enable) refers to stm32f10x_dma.o(i.DMA_SetCurrDataCounter) for DMA_SetCurrDataCounter
    gps_config.o(i.GMTconvert) refers to gps_config.o(i.IsLeapYear) for IsLeapYear
    gps_config.o(i.GPS_Config) refers to gps_config.o(i.GPS_USART_Config) for GPS_USART_Config
    gps_config.o(i.GPS_Config) refers to gps_config.o(i.GPS_DMA_Config) for GPS_DMA_Config
    gps_config.o(i.GPS_DMA_Config) refers to stm32f10x_rcc.o(i.RCC_AHBPeriphClockCmd) for RCC_AHBPeriphClockCmd
    gps_config.o(i.GPS_DMA_Config) refers to stm32f10x_dma.o(i.DMA_Init) for DMA_Init
    gps_config.o(i.GPS_DMA_Config) refers to gps_config.o(i.GPS_Interrupt_Config) for GPS_Interrupt_Config
    gps_config.o(i.GPS_DMA_Config) refers to stm32f10x_dma.o(i.DMA_ITConfig) for DMA_ITConfig
    gps_config.o(i.GPS_DMA_Config) refers to stm32f10x_dma.o(i.DMA_Cmd) for DMA_Cmd
    gps_config.o(i.GPS_DMA_Config) refers to stm32f10x_usart.o(i.USART_DMACmd) for USART_DMACmd
    gps_config.o(i.GPS_DMA_Config) refers to gps_config.o(.bss) for .bss
    gps_config.o(i.GPS_Interrupt_Config) refers to misc.o(i.NVIC_PriorityGroupConfig) for NVIC_PriorityGroupConfig
    gps_config.o(i.GPS_Interrupt_Config) refers to misc.o(i.NVIC_Init) for NVIC_Init
    gps_config.o(i.GPS_USART_Config) refers to stm32f10x_rcc.o(i.RCC_APB2PeriphClockCmd) for RCC_APB2PeriphClockCmd
    gps_config.o(i.GPS_USART_Config) refers to stm32f10x_rcc.o(i.RCC_APB1PeriphClockCmd) for RCC_APB1PeriphClockCmd
    gps_config.o(i.GPS_USART_Config) refers to stm32f10x_gpio.o(i.GPIO_Init) for GPIO_Init
    gps_config.o(i.GPS_USART_Config) refers to stm32f10x_usart.o(i.USART_Init) for USART_Init
    gps_config.o(i.GPS_USART_Config) refers to stm32f10x_usart.o(i.USART_Cmd) for USART_Cmd
    gps_config.o(i.gps_info) refers to printfa.o(i.__0printf) for __2printf
    bsp_ec20.o(i.EC20_CONNECT_MQTT_SERVER) refers to bsp_ec20.o(i.EC20_send_cmd) for EC20_send_cmd
    bsp_ec20.o(i.EC20_CONNECT_MQTT_SERVER) refers to memseta.o(.text) for __aeabi_memclr
    bsp_ec20.o(i.EC20_CONNECT_MQTT_SERVER) refers to printfa.o(i.__0sprintf) for __2sprintf
    bsp_ec20.o(i.EC20_CONNECT_MQTT_SERVER) refers to printfa.o(i.__0printf) for __2printf
    bsp_ec20.o(i.EC20_CONNECT_MQTT_SERVER) refers to bsp_ec20.o(.bss) for .bss
    bsp_ec20.o(i.EC20_CONNECT_SERVER_CFG_INFOR) refers to bsp_ec20.o(i.EC20_CONNECT_MQTT_SERVER) for EC20_CONNECT_MQTT_SERVER
    bsp_ec20.o(i.EC20_INIT) refers to bsp_ec20.o(i.EC20_work_test) for EC20_work_test
    bsp_ec20.o(i.EC20_INIT) refers to printfa.o(i.__0printf) for __2printf
    bsp_ec20.o(i.EC20_INIT) refers to bsp_ec20.o(.bss) for .bss
    bsp_ec20.o(i.EC20_MQTT_SEND_AUTO) refers to bsp_dht11.o(i.DHT11_Read_TempAndHumidity) for DHT11_Read_TempAndHumidity
    bsp_ec20.o(i.EC20_MQTT_SEND_AUTO) refers to printfa.o(i.__0printf) for __2printf
    bsp_ec20.o(i.EC20_MQTT_SEND_AUTO) refers to memseta.o(.text) for __aeabi_memclr
    bsp_ec20.o(i.EC20_MQTT_SEND_AUTO) refers to printfa.o(i.__0sprintf) for __2sprintf
    bsp_ec20.o(i.EC20_MQTT_SEND_AUTO) refers to bsp_ec20.o(i.EC20_send_cmd) for EC20_send_cmd
    bsp_ec20.o(i.EC20_MQTT_SEND_AUTO) refers to dfltui.o(.text) for __aeabi_ui2d
    bsp_ec20.o(i.EC20_MQTT_SEND_AUTO) refers to dmul.o(.text) for __aeabi_dmul
    bsp_ec20.o(i.EC20_MQTT_SEND_AUTO) refers to dadd.o(.text) for __aeabi_dadd
    bsp_ec20.o(i.EC20_MQTT_SEND_AUTO) refers to d2f.o(.text) for __aeabi_d2f
    bsp_ec20.o(i.EC20_MQTT_SEND_AUTO) refers to f2d.o(.text) for __aeabi_f2d
    bsp_ec20.o(i.EC20_MQTT_SEND_AUTO) refers to bsp_systick.o(i.Delay_ms) for Delay_ms
    bsp_ec20.o(i.EC20_MQTT_SEND_AUTO) refers to bsp_ec20.o(.data) for .data
    bsp_ec20.o(i.EC20_MQTT_SEND_AUTO) refers to bsp_ec20.o(.bss) for .bss
    bsp_ec20.o(i.EC20_MQTT_SEND_AUTO) refers to nema_decode_test.o(.data) for deg_lon
    bsp_ec20.o(i.EC20_MQTT_SEND_AUTO) refers to bsp_ec20.o(.conststring) for .conststring
    bsp_ec20.o(i.EC20_MQTT_SEND_AUTO) refers to stm32f10x_it.o(.data) for man
    bsp_ec20.o(i.EC20_check_cmd) refers to strstr.o(.text) for strstr
    bsp_ec20.o(i.EC20_check_cmd) refers to printfa.o(i.__0printf) for __2printf
    bsp_ec20.o(i.EC20_check_cmd) refers to bsp_usart2.o(.data) for USART2_RX_STA
    bsp_ec20.o(i.EC20_check_cmd) refers to bsp_usart2.o(.bss) for USART2_RX_BUF
    bsp_ec20.o(i.EC20_send_cmd) refers to bsp_usart2.o(i.u2_printf) for u2_printf
    bsp_ec20.o(i.EC20_send_cmd) refers to printfa.o(i.__0printf) for __2printf
    bsp_ec20.o(i.EC20_send_cmd) refers to bsp_systick.o(i.Delay_ms) for Delay_ms
    bsp_ec20.o(i.EC20_send_cmd) refers to bsp_ec20.o(i.EC20_check_cmd) for EC20_check_cmd
    bsp_ec20.o(i.EC20_send_cmd) refers to bsp_usart2.o(.data) for USART2_RX_STA
    bsp_ec20.o(i.EC20_work_test) refers to memseta.o(.text) for __aeabi_memclr
    bsp_ec20.o(i.EC20_work_test) refers to bsp_ec20.o(i.EC20_send_cmd) for EC20_send_cmd
    bsp_ec20.o(i.EC20_work_test) refers to strstr.o(.text) for strstr
    bsp_ec20.o(i.EC20_work_test) refers to bsp_ec20.o(.bss) for .bss
    bsp_ec20.o(i.EC20_work_test) refers to bsp_usart2.o(.bss) for USART2_RX_BUF
    bsp_ec20.o(i.check_cmd) refers to bsp_usart2.o(.data) for USART2_RX_STA
    bsp_ec20.o(i.check_cmd) refers to bsp_usart2.o(.bss) for USART2_RX_BUF
    bsp_dht11.o(i.DHT11_GPIO_Config) refers to stm32f10x_rcc.o(i.RCC_APB2PeriphClockCmd) for RCC_APB2PeriphClockCmd
    bsp_dht11.o(i.DHT11_GPIO_Config) refers to stm32f10x_gpio.o(i.GPIO_Init) for GPIO_Init
    bsp_dht11.o(i.DHT11_Init) refers to bsp_dht11.o(i.DHT11_GPIO_Config) for DHT11_GPIO_Config
    bsp_dht11.o(i.DHT11_Init) refers to stm32f10x_gpio.o(i.GPIO_SetBits) for GPIO_SetBits
    bsp_dht11.o(i.DHT11_Mode_IPU) refers to stm32f10x_gpio.o(i.GPIO_Init) for GPIO_Init
    bsp_dht11.o(i.DHT11_Mode_Out_PP) refers to stm32f10x_gpio.o(i.GPIO_Init) for GPIO_Init
    bsp_dht11.o(i.DHT11_ReadByte) refers to stm32f10x_gpio.o(i.GPIO_ReadInputDataBit) for GPIO_ReadInputDataBit
    bsp_dht11.o(i.DHT11_ReadByte) refers to core_delay.o(i.CPU_TS_Tmr_Delay_US) for CPU_TS_Tmr_Delay_US
    bsp_dht11.o(i.DHT11_Read_TempAndHumidity) refers to bsp_dht11.o(i.DHT11_Mode_Out_PP) for DHT11_Mode_Out_PP
    bsp_dht11.o(i.DHT11_Read_TempAndHumidity) refers to stm32f10x_gpio.o(i.GPIO_ResetBits) for GPIO_ResetBits
    bsp_dht11.o(i.DHT11_Read_TempAndHumidity) refers to core_delay.o(i.CPU_TS_Tmr_Delay_US) for CPU_TS_Tmr_Delay_US
    bsp_dht11.o(i.DHT11_Read_TempAndHumidity) refers to stm32f10x_gpio.o(i.GPIO_SetBits) for GPIO_SetBits
    bsp_dht11.o(i.DHT11_Read_TempAndHumidity) refers to bsp_dht11.o(i.DHT11_Mode_IPU) for DHT11_Mode_IPU
    bsp_dht11.o(i.DHT11_Read_TempAndHumidity) refers to stm32f10x_gpio.o(i.GPIO_ReadInputDataBit) for GPIO_ReadInputDataBit
    bsp_dht11.o(i.DHT11_Read_TempAndHumidity) refers to bsp_dht11.o(i.DHT11_ReadByte) for DHT11_ReadByte
    bsp_led.o(i.LED_GPIO_Config) refers to stm32f10x_rcc.o(i.RCC_APB2PeriphClockCmd) for RCC_APB2PeriphClockCmd
    bsp_led.o(i.LED_GPIO_Config) refers to stm32f10x_gpio.o(i.GPIO_Init) for GPIO_Init
    bsp_led.o(i.LED_GPIO_Config) refers to stm32f10x_gpio.o(i.GPIO_SetBits) for GPIO_SetBits
    bsp_tim.o(i.NVIC_Configuration) refers to misc.o(i.NVIC_PriorityGroupConfig) for NVIC_PriorityGroupConfig
    bsp_tim.o(i.NVIC_Configuration) refers to misc.o(i.NVIC_Init) for NVIC_Init
    bsp_tim.o(i.TIM4_Init) refers to stm32f10x_rcc.o(i.RCC_APB1PeriphClockCmd) for RCC_APB1PeriphClockCmd
    bsp_tim.o(i.TIM4_Init) refers to stm32f10x_tim.o(i.TIM_TimeBaseInit) for TIM_TimeBaseInit
    bsp_tim.o(i.TIM4_Init) refers to stm32f10x_tim.o(i.TIM_ITConfig) for TIM_ITConfig
    bsp_tim.o(i.TIM4_Init) refers to bsp_tim.o(i.NVIC_Configuration) for NVIC_Configuration
    bsp_tim.o(i.TIM4_Set) refers to stm32f10x_tim.o(i.TIM_SetCounter) for TIM_SetCounter
    bsp_tim.o(i.TIM4_Set) refers to stm32f10x_tim.o(i.TIM_Cmd) for TIM_Cmd
    bsp_tim.o(i.TIM4_SetARR) refers to stm32f10x_tim.o(i.TIM_SetCounter) for TIM_SetCounter
    bsp_usart1.o(i.NVIC_Configuration) refers to misc.o(i.NVIC_PriorityGroupConfig) for NVIC_PriorityGroupConfig
    bsp_usart1.o(i.NVIC_Configuration) refers to misc.o(i.NVIC_Init) for NVIC_Init
    bsp_usart1.o(i.USART1_Config) refers to stm32f10x_rcc.o(i.RCC_APB2PeriphClockCmd) for RCC_APB2PeriphClockCmd
    bsp_usart1.o(i.USART1_Config) refers to stm32f10x_gpio.o(i.GPIO_Init) for GPIO_Init
    bsp_usart1.o(i.USART1_Config) refers to stm32f10x_usart.o(i.USART_Init) for USART_Init
    bsp_usart1.o(i.USART1_Config) refers to bsp_usart1.o(i.NVIC_Configuration) for NVIC_Configuration
    bsp_usart1.o(i.USART1_Config) refers to stm32f10x_usart.o(i.USART_ITConfig) for USART_ITConfig
    bsp_usart1.o(i.USART1_Config) refers to stm32f10x_usart.o(i.USART_Cmd) for USART_Cmd
    bsp_usart1.o(i.fgetc) refers to stm32f10x_usart.o(i.USART_GetFlagStatus) for USART_GetFlagStatus
    bsp_usart1.o(i.fgetc) refers to stm32f10x_usart.o(i.USART_ReceiveData) for USART_ReceiveData
    bsp_usart1.o(i.fputc) refers to stm32f10x_usart.o(i.USART_SendData) for USART_SendData
    bsp_usart1.o(i.fputc) refers to stm32f10x_usart.o(i.USART_GetFlagStatus) for USART_GetFlagStatus
    bsp_usart2.o(i.NVIC_Configuration) refers to misc.o(i.NVIC_PriorityGroupConfig) for NVIC_PriorityGroupConfig
    bsp_usart2.o(i.NVIC_Configuration) refers to misc.o(i.NVIC_Init) for NVIC_Init
    bsp_usart2.o(i.USART2_Config) refers to stm32f10x_rcc.o(i.RCC_APB2PeriphClockCmd) for RCC_APB2PeriphClockCmd
    bsp_usart2.o(i.USART2_Config) refers to stm32f10x_gpio.o(i.GPIO_Init) for GPIO_Init
    bsp_usart2.o(i.USART2_Config) refers to stm32f10x_rcc.o(i.RCC_APB1PeriphClockCmd) for RCC_APB1PeriphClockCmd
    bsp_usart2.o(i.USART2_Config) refers to stm32f10x_usart.o(i.USART_Init) for USART_Init
    bsp_usart2.o(i.USART2_Config) refers to bsp_usart2.o(i.NVIC_Configuration) for NVIC_Configuration
    bsp_usart2.o(i.USART2_Config) refers to stm32f10x_usart.o(i.USART_ITConfig) for USART_ITConfig
    bsp_usart2.o(i.USART2_Config) refers to stm32f10x_usart.o(i.USART_Cmd) for USART_Cmd
    bsp_usart2.o(i.USART2_Config) refers to bsp_dma.o(i.DMA_USARTx_TX_Config) for DMA_USARTx_TX_Config
    bsp_usart2.o(i.USART2_Config) refers to stm32f10x_usart.o(i.USART_DMACmd) for USART_DMACmd
    bsp_usart2.o(i.USART2_Config) refers to bsp_tim.o(i.TIM4_Init) for TIM4_Init
    bsp_usart2.o(i.USART2_Config) refers to bsp_tim.o(i.TIM4_Set) for TIM4_Set
    bsp_usart2.o(i.USART2_Config) refers to bsp_usart2.o(.data) for .data
    bsp_usart2.o(i.u2_printf) refers to printfa.o(i.__0vsprintf) for vsprintf
    bsp_usart2.o(i.u2_printf) refers to strlen.o(.text) for strlen
    bsp_usart2.o(i.u2_printf) refers to bsp_dma.o(i.UART_DMA_Enable) for UART_DMA_Enable
    bsp_usart2.o(i.u2_printf) refers to bsp_usart2.o(.bss) for .bss
    bsp_exti.o(i.EXTI_Key_Config) refers to stm32f10x_rcc.o(i.RCC_APB2PeriphClockCmd) for RCC_APB2PeriphClockCmd
    bsp_exti.o(i.EXTI_Key_Config) refers to bsp_exti.o(i.NVIC_Configuration) for NVIC_Configuration
    bsp_exti.o(i.EXTI_Key_Config) refers to stm32f10x_gpio.o(i.GPIO_Init) for GPIO_Init
    bsp_exti.o(i.EXTI_Key_Config) refers to stm32f10x_gpio.o(i.GPIO_EXTILineConfig) for GPIO_EXTILineConfig
    bsp_exti.o(i.EXTI_Key_Config) refers to stm32f10x_exti.o(i.EXTI_Init) for EXTI_Init
    bsp_exti.o(i.NVIC_Configuration) refers to misc.o(i.NVIC_PriorityGroupConfig) for NVIC_PriorityGroupConfig
    bsp_exti.o(i.NVIC_Configuration) refers to misc.o(i.NVIC_Init) for NVIC_Init
    mlx90614.o(i.SMBus_Init) refers to stm32f10x_rcc.o(i.RCC_APB2PeriphClockCmd) for RCC_APB2PeriphClockCmd
    mlx90614.o(i.SMBus_Init) refers to stm32f10x_gpio.o(i.GPIO_Init) for GPIO_Init
    mlx90614.o(i.SMBus_ReadMemory) refers to mlx90614.o(i.SMBus_StopBit) for SMBus_StopBit
    mlx90614.o(i.SMBus_ReadMemory) refers to mlx90614.o(i.SMBus_StartBit) for SMBus_StartBit
    mlx90614.o(i.SMBus_ReadMemory) refers to mlx90614.o(i.SMBus_SendByte) for SMBus_SendByte
    mlx90614.o(i.SMBus_ReadMemory) refers to mlx90614.o(i.SMBus_ReceiveByte) for SMBus_ReceiveByte
    mlx90614.o(i.SMBus_ReadMemory) refers to mlx90614.o(i.PEC_Calculation) for PEC_Calculation
    mlx90614.o(i.SMBus_ReadTemp) refers to mlx90614.o(i.SMBus_ReadMemory) for SMBus_ReadMemory
    mlx90614.o(i.SMBus_ReadTemp) refers to dfltui.o(.text) for __aeabi_ui2d
    mlx90614.o(i.SMBus_ReadTemp) refers to dmul.o(.text) for __aeabi_dmul
    mlx90614.o(i.SMBus_ReadTemp) refers to dadd.o(.text) for __aeabi_dsub
    mlx90614.o(i.SMBus_ReadTemp) refers to d2f.o(.text) for __aeabi_d2f
    mlx90614.o(i.SMBus_ReceiveBit) refers to mlx90614.o(i.SMBus_Delay) for SMBus_Delay
    mlx90614.o(i.SMBus_ReceiveByte) refers to mlx90614.o(i.SMBus_ReceiveBit) for SMBus_ReceiveBit
    mlx90614.o(i.SMBus_ReceiveByte) refers to mlx90614.o(i.SMBus_SendBit) for SMBus_SendBit
    mlx90614.o(i.SMBus_SendBit) refers to mlx90614.o(i.SMBus_Delay) for SMBus_Delay
    mlx90614.o(i.SMBus_SendByte) refers to mlx90614.o(i.SMBus_SendBit) for SMBus_SendBit
    mlx90614.o(i.SMBus_SendByte) refers to mlx90614.o(i.SMBus_ReceiveBit) for SMBus_ReceiveBit
    mlx90614.o(i.SMBus_StartBit) refers to mlx90614.o(i.SMBus_Delay) for SMBus_Delay
    mlx90614.o(i.SMBus_StopBit) refers to mlx90614.o(i.SMBus_Delay) for SMBus_Delay
    oled_i2c.o(i.I2C_Configuration) refers to stm32f10x_rcc.o(i.RCC_APB1PeriphClockCmd) for RCC_APB1PeriphClockCmd
    oled_i2c.o(i.I2C_Configuration) refers to stm32f10x_rcc.o(i.RCC_APB2PeriphClockCmd) for RCC_APB2PeriphClockCmd
    oled_i2c.o(i.I2C_Configuration) refers to stm32f10x_gpio.o(i.GPIO_Init) for GPIO_Init
    oled_i2c.o(i.I2C_Configuration) refers to stm32f10x_i2c.o(i.I2C_Init) for I2C_Init
    oled_i2c.o(i.I2C_Configuration) refers to stm32f10x_i2c.o(i.I2C_Cmd) for I2C_Cmd
    oled_i2c.o(i.I2C_WriteByte) refers to stm32f10x_i2c.o(i.I2C_GetFlagStatus) for I2C_GetFlagStatus
    oled_i2c.o(i.I2C_WriteByte) refers to stm32f10x_i2c.o(i.I2C_GenerateSTART) for I2C_GenerateSTART
    oled_i2c.o(i.I2C_WriteByte) refers to stm32f10x_i2c.o(i.I2C_CheckEvent) for I2C_CheckEvent
    oled_i2c.o(i.I2C_WriteByte) refers to stm32f10x_i2c.o(i.I2C_Send7bitAddress) for I2C_Send7bitAddress
    oled_i2c.o(i.I2C_WriteByte) refers to stm32f10x_i2c.o(i.I2C_SendData) for I2C_SendData
    oled_i2c.o(i.I2C_WriteByte) refers to stm32f10x_i2c.o(i.I2C_GenerateSTOP) for I2C_GenerateSTOP
    oled_i2c.o(i.OLED_CLS) refers to oled_i2c.o(i.OLED_Fill) for OLED_Fill
    oled_i2c.o(i.OLED_Fill) refers to oled_i2c.o(i.WriteCmd) for WriteCmd
    oled_i2c.o(i.OLED_Fill) refers to oled_i2c.o(i.WriteDat) for WriteDat
    oled_i2c.o(i.OLED_Init) refers to bsp_systick.o(i.Delay_ms) for Delay_ms
    oled_i2c.o(i.OLED_Init) refers to oled_i2c.o(i.WriteCmd) for WriteCmd
    oled_i2c.o(i.OLED_OFF) refers to oled_i2c.o(i.WriteCmd) for WriteCmd
    oled_i2c.o(i.OLED_ON) refers to oled_i2c.o(i.WriteCmd) for WriteCmd
    oled_i2c.o(i.OLED_SetPos) refers to oled_i2c.o(i.WriteCmd) for WriteCmd
    oled_i2c.o(i.OLED_ShowCN) refers to oled_i2c.o(i.OLED_SetPos) for OLED_SetPos
    oled_i2c.o(i.OLED_ShowCN) refers to oled_i2c.o(i.WriteDat) for WriteDat
    oled_i2c.o(i.OLED_ShowCN) refers to oled_i2c.o(.data) for .data
    oled_i2c.o(i.OLED_ShowCN2) refers to oled_i2c.o(i.OLED_SetPos) for OLED_SetPos
    oled_i2c.o(i.OLED_ShowCN2) refers to oled_i2c.o(i.WriteDat) for WriteDat
    oled_i2c.o(i.OLED_ShowCN2) refers to oled_i2c.o(.data) for .data
    oled_i2c.o(i.OLED_ShowCN3) refers to oled_i2c.o(i.OLED_SetPos) for OLED_SetPos
    oled_i2c.o(i.OLED_ShowCN3) refers to oled_i2c.o(i.WriteDat) for WriteDat
    oled_i2c.o(i.OLED_ShowCN3) refers to oled_i2c.o(.data) for .data
    oled_i2c.o(i.OLED_ShowStr) refers to oled_i2c.o(i.OLED_SetPos) for OLED_SetPos
    oled_i2c.o(i.OLED_ShowStr) refers to oled_i2c.o(i.WriteDat) for WriteDat
    oled_i2c.o(i.OLED_ShowStr) refers to oled_i2c.o(.constdata) for .constdata
    oled_i2c.o(i.OLED_Show_num) refers to ffixui.o(.text) for __aeabi_f2uiz
    oled_i2c.o(i.OLED_Show_num) refers to ffltui.o(.text) for __aeabi_ui2f
    oled_i2c.o(i.OLED_Show_num) refers to fadd.o(.text) for __aeabi_frsub
    oled_i2c.o(i.OLED_Show_num) refers to f2d.o(.text) for __aeabi_f2d
    oled_i2c.o(i.OLED_Show_num) refers to printfa.o(i.__0sprintf) for __2sprintf
    oled_i2c.o(i.OLED_Show_num) refers to oled_i2c.o(i.OLED_ShowStr) for OLED_ShowStr
    oled_i2c.o(i.WriteCmd) refers to oled_i2c.o(i.I2C_WriteByte) for I2C_WriteByte
    oled_i2c.o(i.WriteDat) refers to oled_i2c.o(i.I2C_WriteByte) for I2C_WriteByte
    context.o(i.nmea_error) refers to context.o(i.nmea_property) for nmea_property
    context.o(i.nmea_error) refers to printfa.o(i.__0vsnprintf) for vsnprintf
    context.o(i.nmea_info) refers to context.o(i.nmea_property) for nmea_property
    context.o(i.nmea_info) refers to printfa.o(i.__0vsnprintf) for vsnprintf
    context.o(i.nmea_property) refers to context.o(.data) for .data
    context.o(i.nmea_trace) refers to context.o(i.nmea_property) for nmea_property
    context.o(i.nmea_trace) refers to printfa.o(i.__0vsnprintf) for vsnprintf
    context.o(i.nmea_trace_buff) refers to context.o(i.nmea_property) for nmea_property
    generate.o(i.nmea_gen_GPGGA) refers to tok.o(i.nmea_printf) for nmea_printf
    generate.o(i.nmea_gen_GPGGA) refers to generate.o(.conststring) for .conststring
    generate.o(i.nmea_gen_GPGSA) refers to tok.o(i.nmea_printf) for nmea_printf
    generate.o(i.nmea_gen_GPGSA) refers to generate.o(.conststring) for .conststring
    generate.o(i.nmea_gen_GPGSV) refers to tok.o(i.nmea_printf) for nmea_printf
    generate.o(i.nmea_gen_GPGSV) refers to generate.o(.conststring) for .conststring
    generate.o(i.nmea_gen_GPRMC) refers to tok.o(i.nmea_printf) for nmea_printf
    generate.o(i.nmea_gen_GPRMC) refers to generate.o(.conststring) for .conststring
    generate.o(i.nmea_gen_GPVTG) refers to tok.o(i.nmea_printf) for nmea_printf
    generate.o(i.nmea_generate) refers to generate.o(i.nmea_info2GPGGA) for nmea_info2GPGGA
    generate.o(i.nmea_generate) refers to generate.o(i.nmea_gen_GPGGA) for nmea_gen_GPGGA
    generate.o(i.nmea_generate) refers to generate.o(i.nmea_info2GPGSA) for nmea_info2GPGSA
    generate.o(i.nmea_generate) refers to generate.o(i.nmea_gen_GPGSA) for nmea_gen_GPGSA
    generate.o(i.nmea_generate) refers to generate.o(i.nmea_gsv_npack) for nmea_gsv_npack
    generate.o(i.nmea_generate) refers to generate.o(i.nmea_info2GPGSV) for nmea_info2GPGSV
    generate.o(i.nmea_generate) refers to generate.o(i.nmea_gen_GPGSV) for nmea_gen_GPGSV
    generate.o(i.nmea_generate) refers to generate.o(i.nmea_info2GPRMC) for nmea_info2GPRMC
    generate.o(i.nmea_generate) refers to generate.o(i.nmea_gen_GPRMC) for nmea_gen_GPRMC
    generate.o(i.nmea_generate) refers to generate.o(i.nmea_info2GPVTG) for nmea_info2GPVTG
    generate.o(i.nmea_generate) refers to generate.o(i.nmea_gen_GPVTG) for nmea_gen_GPVTG
    generate.o(i.nmea_gsv_npack) refers to dflti.o(.text) for __aeabi_i2d
    generate.o(i.nmea_gsv_npack) refers to dscalb.o(.text) for __ARM_scalbn
    generate.o(i.nmea_gsv_npack) refers to ceil.o(i.ceil) for ceil
    generate.o(i.nmea_gsv_npack) refers to dfixi.o(.text) for __aeabi_d2iz
    generate.o(i.nmea_info2GPGGA) refers to sentence.o(i.nmea_zero_GPGGA) for nmea_zero_GPGGA
    generate.o(i.nmea_info2GPGGA) refers to memcpya.o(.text) for __aeabi_memcpy4
    generate.o(i.nmea_info2GPGGA) refers to cdrcmple.o(.text) for __aeabi_cdrcmple
    generate.o(i.nmea_info2GPGSA) refers to sentence.o(i.nmea_zero_GPGSA) for nmea_zero_GPGSA
    generate.o(i.nmea_info2GPGSV) refers to sentence.o(i.nmea_zero_GPGSV) for nmea_zero_GPGSV
    generate.o(i.nmea_info2GPGSV) refers to generate.o(i.nmea_gsv_npack) for nmea_gsv_npack
    generate.o(i.nmea_info2GPGSV) refers to memcpya.o(.text) for __aeabi_memcpy4
    generate.o(i.nmea_info2GPRMC) refers to sentence.o(i.nmea_zero_GPRMC) for nmea_zero_GPRMC
    generate.o(i.nmea_info2GPRMC) refers to memcpya.o(.text) for __aeabi_memcpy4
    generate.o(i.nmea_info2GPRMC) refers to cdrcmple.o(.text) for __aeabi_cdrcmple
    generate.o(i.nmea_info2GPRMC) refers to ddiv.o(.text) for __aeabi_ddiv
    generate.o(i.nmea_info2GPVTG) refers to sentence.o(i.nmea_zero_GPVTG) for nmea_zero_GPVTG
    generate.o(i.nmea_info2GPVTG) refers to ddiv.o(.text) for __aeabi_ddiv
    generator.o(i.__nmea_create_generator) refers to malloc.o(i.malloc) for malloc
    generator.o(i.__nmea_create_generator) refers to memseta.o(.text) for __aeabi_memclr4
    generator.o(i.__nmea_create_generator) refers to context.o(i.nmea_error) for nmea_error
    generator.o(i.__nmea_create_generator) refers to generator.o(i.nmea_gen_add) for nmea_gen_add
    generator.o(i.__nmea_create_generator) refers to generator.o(i.nmea_igen_noise_init) for nmea_igen_noise_init
    generator.o(i.__nmea_create_generator) refers to generator.o(i.nmea_igen_noise_loop) for nmea_igen_noise_loop
    generator.o(i.__nmea_create_generator) refers to generator.o(i.nmea_igen_noise_reset) for nmea_igen_noise_reset
    generator.o(i.__nmea_create_generator) refers to generator.o(i.nmea_igen_static_init) for nmea_igen_static_init
    generator.o(i.__nmea_create_generator) refers to generator.o(i.nmea_igen_static_loop) for nmea_igen_static_loop
    generator.o(i.__nmea_create_generator) refers to generator.o(i.nmea_igen_static_reset) for nmea_igen_static_reset
    generator.o(i.__nmea_create_generator) refers to generator.o(i.nmea_igen_rotate_init) for nmea_igen_rotate_init
    generator.o(i.__nmea_create_generator) refers to generator.o(i.nmea_igen_rotate_loop) for nmea_igen_rotate_loop
    generator.o(i.__nmea_create_generator) refers to generator.o(i.nmea_igen_rotate_reset) for nmea_igen_rotate_reset
    generator.o(i.__nmea_create_generator) refers to generator.o(i.nmea_igen_pos_rmove_init) for nmea_igen_pos_rmove_init
    generator.o(i.__nmea_create_generator) refers to generator.o(i.nmea_igen_pos_rmove_loop) for nmea_igen_pos_rmove_loop
    generator.o(i.__nmea_create_generator) refers to generator.o(i.nmea_igen_pos_rmove_destroy) for nmea_igen_pos_rmove_destroy
    generator.o(i.nmea_create_generator) refers to generator.o(i.__nmea_create_generator) for __nmea_create_generator
    generator.o(i.nmea_create_generator) refers to generator.o(i.nmea_gen_init) for nmea_gen_init
    generator.o(i.nmea_destroy_generator) refers to generator.o(i.nmea_gen_destroy) for nmea_gen_destroy
    generator.o(i.nmea_gen_destroy) refers to malloc.o(i.free) for free
    generator.o(i.nmea_gen_init) refers to info.o(i.nmea_zero_INFO) for nmea_zero_INFO
    generator.o(i.nmea_generate_from) refers to generator.o(i.nmea_gen_loop) for nmea_gen_loop
    generator.o(i.nmea_generate_from) refers to generate.o(i.nmea_generate) for nmea_generate
    generator.o(i.nmea_igen_noise_loop) refers to generator.o(i.nmea_random) for nmea_random
    generator.o(i.nmea_igen_noise_loop) refers to dfixi.o(.text) for __aeabi_d2iz
    generator.o(i.nmea_igen_noise_loop) refers to dflti.o(.text) for __aeabi_i2d
    generator.o(i.nmea_igen_pos_rmove_loop) refers to generator.o(i.nmea_random) for nmea_random
    generator.o(i.nmea_igen_pos_rmove_loop) refers to dadd.o(.text) for __aeabi_dadd
    generator.o(i.nmea_igen_pos_rmove_loop) refers to cdcmple.o(.text) for __aeabi_cdcmple
    generator.o(i.nmea_igen_pos_rmove_loop) refers to cdrcmple.o(.text) for __aeabi_cdrcmple
    generator.o(i.nmea_igen_pos_rmove_loop) refers to gmath.o(i.nmea_info2pos) for nmea_info2pos
    generator.o(i.nmea_igen_pos_rmove_loop) refers to ddiv.o(.text) for __aeabi_ddiv
    generator.o(i.nmea_igen_pos_rmove_loop) refers to gmath.o(i.nmea_move_horz) for nmea_move_horz
    generator.o(i.nmea_igen_pos_rmove_loop) refers to gmath.o(i.nmea_pos2info) for nmea_pos2info
    generator.o(i.nmea_igen_rotate_init) refers to generator.o(i.nmea_igen_rotate_reset) for nmea_igen_rotate_reset
    generator.o(i.nmea_igen_rotate_loop) refers to dflti.o(.text) for __aeabi_i2d
    generator.o(i.nmea_igen_rotate_loop) refers to time.o(i.nmea_time_now) for nmea_time_now
    generator.o(i.nmea_igen_rotate_loop) refers to cdrcmple.o(.text) for __aeabi_cdrcmple
    generator.o(i.nmea_igen_rotate_loop) refers to dadd.o(.text) for __aeabi_dsub
    generator.o(i.nmea_igen_rotate_loop) refers to dfixi.o(.text) for __aeabi_d2iz
    generator.o(i.nmea_igen_rotate_reset) refers to dfixi.o(.text) for __aeabi_d2iz
    generator.o(i.nmea_igen_rotate_reset) refers to dadd.o(.text) for __aeabi_dadd
    generator.o(i.nmea_igen_static_init) refers to generator.o(i.nmea_igen_static_reset) for nmea_igen_static_reset
    generator.o(i.nmea_igen_static_loop) refers to time.o(i.nmea_time_now) for nmea_time_now
    generator.o(i.nmea_random) refers to rand.o(.text) for rand
    generator.o(i.nmea_random) refers to dflti.o(.text) for __aeabi_i2d
    generator.o(i.nmea_random) refers to dadd.o(.text) for __aeabi_drsub
    generator.o(i.nmea_random) refers to dmul.o(.text) for __aeabi_dmul
    generator.o(i.nmea_random) refers to ddiv.o(.text) for __aeabi_ddiv
    generator.o(i.nmea_random) refers to generator.o(.data) for .data
    gmath.o(i.nmea_calc_pdop) refers to pow.o(i.pow) for pow
    gmath.o(i.nmea_calc_pdop) refers to dadd.o(.text) for __aeabi_dadd
    gmath.o(i.nmea_calc_pdop) refers to sqrt.o(i.sqrt) for sqrt
    gmath.o(i.nmea_degree2ndeg) refers to modf.o(i.modf) for modf
    gmath.o(i.nmea_degree2ndeg) refers to dmul.o(.text) for __aeabi_dmul
    gmath.o(i.nmea_degree2ndeg) refers to dadd.o(.text) for __aeabi_dadd
    gmath.o(i.nmea_degree2radian) refers to dmul.o(.text) for __aeabi_dmul
    gmath.o(i.nmea_distance) refers to dadd.o(.text) for __aeabi_dsub
    gmath.o(i.nmea_distance) refers to cos.o(i.cos) for cos
    gmath.o(i.nmea_distance) refers to dmul.o(.text) for __aeabi_dmul
    gmath.o(i.nmea_distance) refers to sin.o(i.sin) for sin
    gmath.o(i.nmea_distance) refers to acos.o(i.acos) for acos
    gmath.o(i.nmea_distance_ellipsoid) refers to cdcmple.o(.text) for __aeabi_cdcmpeq
    gmath.o(i.nmea_distance_ellipsoid) refers to dadd.o(.text) for __aeabi_dsub
    gmath.o(i.nmea_distance_ellipsoid) refers to tan.o(i.tan) for tan
    gmath.o(i.nmea_distance_ellipsoid) refers to dmul.o(.text) for __aeabi_dmul
    gmath.o(i.nmea_distance_ellipsoid) refers to atan.o(i.atan) for atan
    gmath.o(i.nmea_distance_ellipsoid) refers to sin.o(i.sin) for sin
    gmath.o(i.nmea_distance_ellipsoid) refers to cos.o(i.cos) for cos
    gmath.o(i.nmea_distance_ellipsoid) refers to sqrt.o(i.sqrt) for sqrt
    gmath.o(i.nmea_distance_ellipsoid) refers to ddiv.o(.text) for __aeabi_ddiv
    gmath.o(i.nmea_distance_ellipsoid) refers to asin.o(i.asin) for asin
    gmath.o(i.nmea_distance_ellipsoid) refers to dscalb.o(.text) for __ARM_scalbn
    gmath.o(i.nmea_distance_ellipsoid) refers to cdrcmple.o(.text) for __aeabi_cdrcmple
    gmath.o(i.nmea_dop2meters) refers to dmul.o(.text) for __aeabi_dmul
    gmath.o(i.nmea_info2pos) refers to gmath.o(i.nmea_ndeg2radian) for nmea_ndeg2radian
    gmath.o(i.nmea_meters2dop) refers to ddiv.o(.text) for __aeabi_ddiv
    gmath.o(i.nmea_move_horz) refers to ddiv.o(.text) for __aeabi_ddiv
    gmath.o(i.nmea_move_horz) refers to gmath.o(i.nmea_degree2radian) for nmea_degree2radian
    gmath.o(i.nmea_move_horz) refers to cos.o(i.cos) for cos
    gmath.o(i.nmea_move_horz) refers to sin.o(i.sin) for sin
    gmath.o(i.nmea_move_horz) refers to dmul.o(.text) for __aeabi_dmul
    gmath.o(i.nmea_move_horz) refers to dadd.o(.text) for __aeabi_dadd
    gmath.o(i.nmea_move_horz) refers to asin.o(i.asin) for asin
    gmath.o(i.nmea_move_horz) refers to atan2.o(i.atan2) for atan2
    gmath.o(i.nmea_move_horz) refers to gmath.o(i.__ARM_isnan) for __ARM_isnan
    gmath.o(i.nmea_move_horz_ellipsoid) refers to cdcmple.o(.text) for __aeabi_cdcmple
    gmath.o(i.nmea_move_horz_ellipsoid) refers to gmath.o(i.__ARM_isnan) for __ARM_isnan
    gmath.o(i.nmea_move_horz_ellipsoid) refers to tan.o(i.tan) for tan
    gmath.o(i.nmea_move_horz_ellipsoid) refers to dmul.o(.text) for __aeabi_dmul
    gmath.o(i.nmea_move_horz_ellipsoid) refers to dadd.o(.text) for __aeabi_dadd
    gmath.o(i.nmea_move_horz_ellipsoid) refers to sqrt.o(i.sqrt) for sqrt
    gmath.o(i.nmea_move_horz_ellipsoid) refers to ddiv.o(.text) for __aeabi_ddiv
    gmath.o(i.nmea_move_horz_ellipsoid) refers to sin.o(i.sin) for sin
    gmath.o(i.nmea_move_horz_ellipsoid) refers to cos.o(i.cos) for cos
    gmath.o(i.nmea_move_horz_ellipsoid) refers to atan2.o(i.atan2) for atan2
    gmath.o(i.nmea_move_horz_ellipsoid) refers to dscalb.o(.text) for __ARM_scalbn
    gmath.o(i.nmea_move_horz_ellipsoid) refers to cdrcmple.o(.text) for __aeabi_cdrcmple
    gmath.o(i.nmea_ndeg2degree) refers to ddiv.o(.text) for __aeabi_ddiv
    gmath.o(i.nmea_ndeg2degree) refers to dfixi.o(.text) for __aeabi_d2iz
    gmath.o(i.nmea_ndeg2degree) refers to dflti.o(.text) for __aeabi_i2d
    gmath.o(i.nmea_ndeg2degree) refers to dmul.o(.text) for __aeabi_dmul
    gmath.o(i.nmea_ndeg2degree) refers to dadd.o(.text) for __aeabi_drsub
    gmath.o(i.nmea_ndeg2radian) refers to gmath.o(i.nmea_ndeg2degree) for nmea_ndeg2degree
    gmath.o(i.nmea_ndeg2radian) refers to gmath.o(i.nmea_degree2radian) for nmea_degree2radian
    gmath.o(i.nmea_pos2info) refers to gmath.o(i.nmea_radian2ndeg) for nmea_radian2ndeg
    gmath.o(i.nmea_radian2degree) refers to ddiv.o(.text) for __aeabi_ddiv
    gmath.o(i.nmea_radian2ndeg) refers to gmath.o(i.nmea_radian2degree) for nmea_radian2degree
    gmath.o(i.nmea_radian2ndeg) refers to gmath.o(i.nmea_degree2ndeg) for nmea_degree2ndeg
    info.o(i.nmea_zero_INFO) refers to memseta.o(.text) for __aeabi_memclr4
    info.o(i.nmea_zero_INFO) refers to time.o(i.nmea_time_now) for nmea_time_now
    parse.o(i._nmea_parse_time) refers to context.o(i.nmea_error) for nmea_error
    parse.o(i._nmea_parse_time) refers to tok.o(i.nmea_scanf) for nmea_scanf
    parse.o(i.nmea_GNRMC2info) refers to memcpya.o(.text) for __aeabi_memcpy4
    parse.o(i.nmea_GNRMC2info) refers to dmul.o(.text) for __aeabi_dmul
    parse.o(i.nmea_GNZDA2info) refers to memcpya.o(.text) for __aeabi_memcpy4
    parse.o(i.nmea_GPRMC2info) refers to memcpya.o(.text) for __aeabi_memcpy4
    parse.o(i.nmea_GPRMC2info) refers to dmul.o(.text) for __aeabi_dmul
    parse.o(i.nmea_GPTXT2info) refers to context.o(i.nmea_info) for nmea_info
    parse.o(i.nmea_GPTXT2info) refers to parse.o(.bss) for .bss
    parse.o(i.nmea_find_tail) refers to tok.o(i.nmea_atoi) for nmea_atoi
    parse.o(i.nmea_pack_type) refers to memcmp.o(.text) for memcmp
    parse.o(i.nmea_pack_type) refers to parse.o(.data) for .data
    parse.o(i.nmea_parse_BDGSA) refers to memseta.o(.text) for __aeabi_memclr4
    parse.o(i.nmea_parse_BDGSA) refers to context.o(i.nmea_trace_buff) for nmea_trace_buff
    parse.o(i.nmea_parse_BDGSA) refers to tok.o(i.nmea_scanf) for nmea_scanf
    parse.o(i.nmea_parse_BDGSA) refers to context.o(i.nmea_error) for nmea_error
    parse.o(i.nmea_parse_BDGSV) refers to memseta.o(.text) for __aeabi_memclr4
    parse.o(i.nmea_parse_BDGSV) refers to context.o(i.nmea_trace_buff) for nmea_trace_buff
    parse.o(i.nmea_parse_BDGSV) refers to tok.o(i.nmea_scanf) for nmea_scanf
    parse.o(i.nmea_parse_BDGSV) refers to context.o(i.nmea_error) for nmea_error
    parse.o(i.nmea_parse_BDGSV) refers to parse.o(.conststring) for .conststring
    parse.o(i.nmea_parse_GNGGA) refers to memseta.o(.text) for __aeabi_memclr4
    parse.o(i.nmea_parse_GNGGA) refers to context.o(i.nmea_trace_buff) for nmea_trace_buff
    parse.o(i.nmea_parse_GNGGA) refers to tok.o(i.nmea_scanf) for nmea_scanf
    parse.o(i.nmea_parse_GNGGA) refers to context.o(i.nmea_error) for nmea_error
    parse.o(i.nmea_parse_GNGGA) refers to strlen.o(.text) for strlen
    parse.o(i.nmea_parse_GNGGA) refers to parse.o(i._nmea_parse_time) for _nmea_parse_time
    parse.o(i.nmea_parse_GNGLL) refers to memseta.o(.text) for __aeabi_memclr4
    parse.o(i.nmea_parse_GNGLL) refers to context.o(i.nmea_trace_buff) for nmea_trace_buff
    parse.o(i.nmea_parse_GNGLL) refers to tok.o(i.nmea_scanf) for nmea_scanf
    parse.o(i.nmea_parse_GNGLL) refers to context.o(i.nmea_error) for nmea_error
    parse.o(i.nmea_parse_GNGLL) refers to strlen.o(.text) for strlen
    parse.o(i.nmea_parse_GNGLL) refers to parse.o(i._nmea_parse_time) for _nmea_parse_time
    parse.o(i.nmea_parse_GNRMC) refers to memseta.o(.text) for __aeabi_memclr4
    parse.o(i.nmea_parse_GNRMC) refers to context.o(i.nmea_trace_buff) for nmea_trace_buff
    parse.o(i.nmea_parse_GNRMC) refers to tok.o(i.nmea_scanf) for nmea_scanf
    parse.o(i.nmea_parse_GNRMC) refers to context.o(i.nmea_error) for nmea_error
    parse.o(i.nmea_parse_GNRMC) refers to strlen.o(.text) for strlen
    parse.o(i.nmea_parse_GNRMC) refers to parse.o(i._nmea_parse_time) for _nmea_parse_time
    parse.o(i.nmea_parse_GNVTG) refers to memseta.o(.text) for __aeabi_memclr4
    parse.o(i.nmea_parse_GNVTG) refers to context.o(i.nmea_trace_buff) for nmea_trace_buff
    parse.o(i.nmea_parse_GNVTG) refers to tok.o(i.nmea_scanf) for nmea_scanf
    parse.o(i.nmea_parse_GNVTG) refers to context.o(i.nmea_error) for nmea_error
    parse.o(i.nmea_parse_GNZDA) refers to memseta.o(.text) for __aeabi_memclr4
    parse.o(i.nmea_parse_GNZDA) refers to context.o(i.nmea_trace_buff) for nmea_trace_buff
    parse.o(i.nmea_parse_GNZDA) refers to tok.o(i.nmea_scanf) for nmea_scanf
    parse.o(i.nmea_parse_GNZDA) refers to context.o(i.nmea_error) for nmea_error
    parse.o(i.nmea_parse_GNZDA) refers to strlen.o(.text) for strlen
    parse.o(i.nmea_parse_GNZDA) refers to parse.o(i._nmea_parse_time) for _nmea_parse_time
    parse.o(i.nmea_parse_GPGGA) refers to memseta.o(.text) for __aeabi_memclr4
    parse.o(i.nmea_parse_GPGGA) refers to context.o(i.nmea_trace_buff) for nmea_trace_buff
    parse.o(i.nmea_parse_GPGGA) refers to tok.o(i.nmea_scanf) for nmea_scanf
    parse.o(i.nmea_parse_GPGGA) refers to context.o(i.nmea_error) for nmea_error
    parse.o(i.nmea_parse_GPGGA) refers to strlen.o(.text) for strlen
    parse.o(i.nmea_parse_GPGGA) refers to parse.o(i._nmea_parse_time) for _nmea_parse_time
    parse.o(i.nmea_parse_GPGSA) refers to memseta.o(.text) for __aeabi_memclr4
    parse.o(i.nmea_parse_GPGSA) refers to context.o(i.nmea_trace_buff) for nmea_trace_buff
    parse.o(i.nmea_parse_GPGSA) refers to tok.o(i.nmea_scanf) for nmea_scanf
    parse.o(i.nmea_parse_GPGSA) refers to context.o(i.nmea_error) for nmea_error
    parse.o(i.nmea_parse_GPGSV) refers to memseta.o(.text) for __aeabi_memclr4
    parse.o(i.nmea_parse_GPGSV) refers to context.o(i.nmea_trace_buff) for nmea_trace_buff
    parse.o(i.nmea_parse_GPGSV) refers to tok.o(i.nmea_scanf) for nmea_scanf
    parse.o(i.nmea_parse_GPGSV) refers to context.o(i.nmea_error) for nmea_error
    parse.o(i.nmea_parse_GPGSV) refers to parse.o(.conststring) for .conststring
    parse.o(i.nmea_parse_GPRMC) refers to memseta.o(.text) for __aeabi_memclr4
    parse.o(i.nmea_parse_GPRMC) refers to context.o(i.nmea_trace_buff) for nmea_trace_buff
    parse.o(i.nmea_parse_GPRMC) refers to tok.o(i.nmea_scanf) for nmea_scanf
    parse.o(i.nmea_parse_GPRMC) refers to context.o(i.nmea_error) for nmea_error
    parse.o(i.nmea_parse_GPRMC) refers to strlen.o(.text) for strlen
    parse.o(i.nmea_parse_GPRMC) refers to parse.o(i._nmea_parse_time) for _nmea_parse_time
    parse.o(i.nmea_parse_GPTXT) refers to context.o(i.nmea_trace_buff) for nmea_trace_buff
    parse.o(i.nmea_parse_GPTXT) refers to tok.o(i.nmea_scanf) for nmea_scanf
    parse.o(i.nmea_parse_GPTXT) refers to context.o(i.nmea_error) for nmea_error
    parse.o(i.nmea_parse_GPTXT) refers to parse.o(.bss) for .bss
    parse.o(i.nmea_parse_GPVTG) refers to memseta.o(.text) for __aeabi_memclr4
    parse.o(i.nmea_parse_GPVTG) refers to context.o(i.nmea_trace_buff) for nmea_trace_buff
    parse.o(i.nmea_parse_GPVTG) refers to tok.o(i.nmea_scanf) for nmea_scanf
    parse.o(i.nmea_parse_GPVTG) refers to context.o(i.nmea_error) for nmea_error
    parse.o(.data) refers to parse.o(.conststring) for .conststring
    parser.o(i.nmea_parse) refers to parser.o(i.nmea_parser_push) for nmea_parser_push
    parser.o(i.nmea_parse) refers to parse.o(i.nmea_GPGGA2info) for nmea_GPGGA2info
    parser.o(i.nmea_parse) refers to parse.o(i.nmea_GPGSA2info) for nmea_GPGSA2info
    parser.o(i.nmea_parse) refers to parse.o(i.nmea_GPGSV2info) for nmea_GPGSV2info
    parser.o(i.nmea_parse) refers to parse.o(i.nmea_GPRMC2info) for nmea_GPRMC2info
    parser.o(i.nmea_parse) refers to parse.o(i.nmea_GPVTG2info) for nmea_GPVTG2info
    parser.o(i.nmea_parse) refers to parse.o(i.nmea_GNGGA2info) for nmea_GNGGA2info
    parser.o(i.nmea_parse) refers to parse.o(i.nmea_GNRMC2info) for nmea_GNRMC2info
    parser.o(i.nmea_parse) refers to parse.o(i.nmea_GNVTG2info) for nmea_GNVTG2info
    parser.o(i.nmea_parse) refers to parse.o(i.nmea_GNZDA2info) for nmea_GNZDA2info
    parser.o(i.nmea_parse) refers to parse.o(i.nmea_GNGLL2info) for nmea_GNGLL2info
    parser.o(i.nmea_parse) refers to parse.o(i.nmea_BDGSV2info) for nmea_BDGSV2info
    parser.o(i.nmea_parse) refers to parse.o(i.nmea_BDGSA2info) for nmea_BDGSA2info
    parser.o(i.nmea_parse) refers to parse.o(i.nmea_GPTXT2info) for nmea_GPTXT2info
    parser.o(i.nmea_parse) refers to malloc.o(i.free) for free
    parser.o(i.nmea_parse) refers to parser.o(i.nmea_parser_pop) for nmea_parser_pop
    parser.o(i.nmea_parser_destroy) refers to malloc.o(i.free) for free
    parser.o(i.nmea_parser_destroy) refers to parser.o(i.nmea_parser_queue_clear) for nmea_parser_queue_clear
    parser.o(i.nmea_parser_destroy) refers to memseta.o(.text) for __aeabi_memclr4
    parser.o(i.nmea_parser_drop) refers to malloc.o(i.free) for free
    parser.o(i.nmea_parser_init) refers to context.o(i.nmea_property) for nmea_property
    parser.o(i.nmea_parser_init) refers to memseta.o(.text) for __aeabi_memclr4
    parser.o(i.nmea_parser_init) refers to malloc.o(i.malloc) for malloc
    parser.o(i.nmea_parser_init) refers to context.o(i.nmea_error) for nmea_error
    parser.o(i.nmea_parser_pop) refers to malloc.o(i.free) for free
    parser.o(i.nmea_parser_push) refers to parser.o(i.nmea_parser_real_push) for nmea_parser_real_push
    parser.o(i.nmea_parser_queue_clear) refers to parser.o(i.nmea_parser_drop) for nmea_parser_drop
    parser.o(i.nmea_parser_real_push) refers to parser.o(i.nmea_parser_buff_clear) for nmea_parser_buff_clear
    parser.o(i.nmea_parser_real_push) refers to memcpya.o(.text) for __aeabi_memcpy
    parser.o(i.nmea_parser_real_push) refers to parse.o(i.nmea_find_tail) for nmea_find_tail
    parser.o(i.nmea_parser_real_push) refers to parse.o(i.nmea_pack_type) for nmea_pack_type
    parser.o(i.nmea_parser_real_push) refers to malloc.o(i.malloc) for malloc
    parser.o(i.nmea_parser_real_push) refers to parse.o(i.nmea_parse_GNGLL) for nmea_parse_GNGLL
    parser.o(i.nmea_parser_real_push) refers to parse.o(i.nmea_parse_GNGGA) for nmea_parse_GNGGA
    parser.o(i.nmea_parser_real_push) refers to parse.o(i.nmea_parse_GPGGA) for nmea_parse_GPGGA
    parser.o(i.nmea_parser_real_push) refers to malloc.o(i.free) for free
    parser.o(i.nmea_parser_real_push) refers to parse.o(i.nmea_parse_GPGSA) for nmea_parse_GPGSA
    parser.o(i.nmea_parser_real_push) refers to parse.o(i.nmea_parse_GPGSV) for nmea_parse_GPGSV
    parser.o(i.nmea_parser_real_push) refers to parse.o(i.nmea_parse_GPRMC) for nmea_parse_GPRMC
    parser.o(i.nmea_parser_real_push) refers to parse.o(i.nmea_parse_GPVTG) for nmea_parse_GPVTG
    parser.o(i.nmea_parser_real_push) refers to parse.o(i.nmea_parse_GNRMC) for nmea_parse_GNRMC
    parser.o(i.nmea_parser_real_push) refers to parse.o(i.nmea_parse_GNVTG) for nmea_parse_GNVTG
    parser.o(i.nmea_parser_real_push) refers to parse.o(i.nmea_parse_GNZDA) for nmea_parse_GNZDA
    parser.o(i.nmea_parser_real_push) refers to parse.o(i.nmea_parse_BDGSV) for nmea_parse_BDGSV
    parser.o(i.nmea_parser_real_push) refers to parse.o(i.nmea_parse_BDGSA) for nmea_parse_BDGSA
    parser.o(i.nmea_parser_real_push) refers to parse.o(i.nmea_parse_GPTXT) for nmea_parse_GPTXT
    parser.o(i.nmea_parser_real_push) refers to context.o(i.nmea_error) for nmea_error
    sentence.o(i.nmea_zero_BDGSA) refers to memseta.o(.text) for __aeabi_memclr4
    sentence.o(i.nmea_zero_GNGGA) refers to memseta.o(.text) for __aeabi_memclr4
    sentence.o(i.nmea_zero_GNGGA) refers to time.o(i.nmea_time_now) for nmea_time_now
    sentence.o(i.nmea_zero_GNGLL) refers to memseta.o(.text) for __aeabi_memclr4
    sentence.o(i.nmea_zero_GNGLL) refers to time.o(i.nmea_time_now) for nmea_time_now
    sentence.o(i.nmea_zero_GNRMC) refers to memseta.o(.text) for __aeabi_memclr4
    sentence.o(i.nmea_zero_GNRMC) refers to time.o(i.nmea_time_now) for nmea_time_now
    sentence.o(i.nmea_zero_GNVTG) refers to memseta.o(.text) for __aeabi_memclr4
    sentence.o(i.nmea_zero_GNZDA) refers to memseta.o(.text) for __aeabi_memclr4
    sentence.o(i.nmea_zero_GNZDA) refers to time.o(i.nmea_time_now) for nmea_time_now
    sentence.o(i.nmea_zero_GPGGA) refers to memseta.o(.text) for __aeabi_memclr4
    sentence.o(i.nmea_zero_GPGGA) refers to time.o(i.nmea_time_now) for nmea_time_now
    sentence.o(i.nmea_zero_GPGSA) refers to memseta.o(.text) for __aeabi_memclr4
    sentence.o(i.nmea_zero_GPGSV) refers to memseta.o(.text) for __aeabi_memclr4
    sentence.o(i.nmea_zero_GPRMC) refers to memseta.o(.text) for __aeabi_memclr4
    sentence.o(i.nmea_zero_GPRMC) refers to time.o(i.nmea_time_now) for nmea_time_now
    sentence.o(i.nmea_zero_GPVTG) refers to memseta.o(.text) for __aeabi_memclr4
    tok.o(i.nmea_atof) refers to memcpya.o(.text) for __aeabi_memcpy
    tok.o(i.nmea_atof) refers to strtod.o(i.strtod) for strtod
    tok.o(i.nmea_atoi) refers to memcpya.o(.text) for __aeabi_memcpy
    tok.o(i.nmea_atoi) refers to strtol.o(.text) for strtol
    tok.o(i.nmea_printf) refers to printfa.o(i.__0vsnprintf) for vsnprintf
    tok.o(i.nmea_printf) refers to tok.o(i.nmea_calc_crc) for nmea_calc_crc
    tok.o(i.nmea_printf) refers to printfa.o(i.__0snprintf) for __2snprintf
    tok.o(i.nmea_printf) refers to memseta.o(.text) for __aeabi_memset
    tok.o(i.nmea_scanf) refers to ctype_o.o(.text) for __rt_ctype_table
    tok.o(i.nmea_scanf) refers to tok.o(i.nmea_atoi) for nmea_atoi
    tok.o(i.nmea_scanf) refers to memchr.o(.text) for memchr
    tok.o(i.nmea_scanf) refers to memcpya.o(.text) for __aeabi_memcpy
    tok.o(i.nmea_scanf) refers to tok.o(i.nmea_atof) for nmea_atof
    acos.o(i.__softfp_acos) refers (Special) to iusefp.o(.text) for __I$use$fp
    acos.o(i.__softfp_acos) refers to acos.o(i.acos) for acos
    acos.o(i.acos) refers (Special) to iusefp.o(.text) for __I$use$fp
    acos.o(i.acos) refers to dunder.o(i.__mathlib_dbl_infnan) for __mathlib_dbl_infnan
    acos.o(i.acos) refers to errno.o(i.__set_errno) for __set_errno
    acos.o(i.acos) refers to dunder.o(i.__mathlib_dbl_invalid) for __mathlib_dbl_invalid
    acos.o(i.acos) refers to dmul.o(.text) for __aeabi_dmul
    acos.o(i.acos) refers to poly.o(i.__kernel_poly) for __kernel_poly
    acos.o(i.acos) refers to dadd.o(.text) for __aeabi_dadd
    acos.o(i.acos) refers to ddiv.o(.text) for __aeabi_ddiv
    acos.o(i.acos) refers to dscalb.o(.text) for __ARM_scalbn
    acos.o(i.acos) refers to sqrt.o(i.sqrt) for sqrt
    acos.o(i.acos) refers to acos.o(.constdata) for .constdata
    acos.o(.constdata) refers (Special) to iusefp.o(.text) for __I$use$fp
    acos_x.o(i.____softfp_acos$lsc) refers (Special) to iusefp.o(.text) for __I$use$fp
    acos_x.o(i.____softfp_acos$lsc) refers to acos_x.o(i.__acos$lsc) for __acos$lsc
    acos_x.o(i.__acos$lsc) refers (Special) to iusefp.o(.text) for __I$use$fp
    acos_x.o(i.__acos$lsc) refers to dunder.o(i.__mathlib_dbl_infnan) for __mathlib_dbl_infnan
    acos_x.o(i.__acos$lsc) refers to errno.o(i.__set_errno) for __set_errno
    acos_x.o(i.__acos$lsc) refers to dmul.o(.text) for __aeabi_dmul
    acos_x.o(i.__acos$lsc) refers to poly.o(i.__kernel_poly) for __kernel_poly
    acos_x.o(i.__acos$lsc) refers to dadd.o(.text) for __aeabi_dadd
    acos_x.o(i.__acos$lsc) refers to ddiv.o(.text) for __aeabi_ddiv
    acos_x.o(i.__acos$lsc) refers to dscalb.o(.text) for __ARM_scalbn
    acos_x.o(i.__acos$lsc) refers to sqrt.o(i.sqrt) for sqrt
    acos_x.o(i.__acos$lsc) refers to acos_x.o(.constdata) for .constdata
    acos_x.o(.constdata) refers (Special) to iusefp.o(.text) for __I$use$fp
    asin.o(i.__softfp_asin) refers (Special) to iusefp.o(.text) for __I$use$fp
    asin.o(i.__softfp_asin) refers to asin.o(i.asin) for asin
    asin.o(i.asin) refers (Special) to iusefp.o(.text) for __I$use$fp
    asin.o(i.asin) refers to dunder.o(i.__mathlib_dbl_infnan) for __mathlib_dbl_infnan
    asin.o(i.asin) refers to dmul.o(.text) for __aeabi_dmul
    asin.o(i.asin) refers to dadd.o(.text) for __aeabi_dadd
    asin.o(i.asin) refers to errno.o(i.__set_errno) for __set_errno
    asin.o(i.asin) refers to dunder.o(i.__mathlib_dbl_invalid) for __mathlib_dbl_invalid
    asin.o(i.asin) refers to fpclassify.o(i.__ARM_fpclassify) for __ARM_fpclassify
    asin.o(i.asin) refers to dunder.o(i.__mathlib_dbl_underflow) for __mathlib_dbl_underflow
    asin.o(i.asin) refers to poly.o(i.__kernel_poly) for __kernel_poly
    asin.o(i.asin) refers to ddiv.o(.text) for __aeabi_ddiv
    asin.o(i.asin) refers to dscalb.o(.text) for __ARM_scalbn
    asin.o(i.asin) refers to sqrt.o(i.sqrt) for sqrt
    asin.o(i.asin) refers to asin.o(.constdata) for .constdata
    asin.o(.constdata) refers (Special) to iusefp.o(.text) for __I$use$fp
    asin_x.o(i.____softfp_asin$lsc) refers (Special) to iusefp.o(.text) for __I$use$fp
    asin_x.o(i.____softfp_asin$lsc) refers to asin_x.o(i.__asin$lsc) for __asin$lsc
    asin_x.o(i.__asin$lsc) refers (Special) to iusefp.o(.text) for __I$use$fp
    asin_x.o(i.__asin$lsc) refers to dunder.o(i.__mathlib_dbl_infnan) for __mathlib_dbl_infnan
    asin_x.o(i.__asin$lsc) refers to dmul.o(.text) for __aeabi_dmul
    asin_x.o(i.__asin$lsc) refers to dadd.o(.text) for __aeabi_dadd
    asin_x.o(i.__asin$lsc) refers to errno.o(i.__set_errno) for __set_errno
    asin_x.o(i.__asin$lsc) refers to poly.o(i.__kernel_poly) for __kernel_poly
    asin_x.o(i.__asin$lsc) refers to ddiv.o(.text) for __aeabi_ddiv
    asin_x.o(i.__asin$lsc) refers to dscalb.o(.text) for __ARM_scalbn
    asin_x.o(i.__asin$lsc) refers to sqrt.o(i.sqrt) for sqrt
    asin_x.o(i.__asin$lsc) refers to asin_x.o(.constdata) for .constdata
    asin_x.o(.constdata) refers (Special) to iusefp.o(.text) for __I$use$fp
    atan.o(i.__softfp_atan) refers (Special) to iusefp.o(.text) for __I$use$fp
    atan.o(i.__softfp_atan) refers to atan.o(i.atan) for atan
    atan.o(i.atan) refers (Special) to iusefp.o(.text) for __I$use$fp
    atan.o(i.atan) refers to dunder.o(i.__mathlib_dbl_infnan) for __mathlib_dbl_infnan
    atan.o(i.atan) refers to fpclassify.o(i.__ARM_fpclassify) for __ARM_fpclassify
    atan.o(i.atan) refers to dunder.o(i.__mathlib_dbl_underflow) for __mathlib_dbl_underflow
    atan.o(i.atan) refers to dadd.o(.text) for __aeabi_dadd
    atan.o(i.atan) refers to dscalb.o(.text) for __ARM_scalbn
    atan.o(i.atan) refers to ddiv.o(.text) for __aeabi_ddiv
    atan.o(i.atan) refers to dmul.o(.text) for __aeabi_dmul
    atan.o(i.atan) refers to poly.o(i.__kernel_poly) for __kernel_poly
    atan.o(i.atan) refers to atan.o(.constdata) for .constdata
    atan.o(.constdata) refers (Special) to iusefp.o(.text) for __I$use$fp
    atan_x.o(i.____softfp_atan$lsc) refers (Special) to iusefp.o(.text) for __I$use$fp
    atan_x.o(i.____softfp_atan$lsc) refers to atan_x.o(i.__atan$lsc) for __atan$lsc
    atan_x.o(i.__atan$lsc) refers (Special) to iusefp.o(.text) for __I$use$fp
    atan_x.o(i.__atan$lsc) refers to dunder.o(i.__mathlib_dbl_infnan) for __mathlib_dbl_infnan
    atan_x.o(i.__atan$lsc) refers to dadd.o(.text) for __aeabi_dadd
    atan_x.o(i.__atan$lsc) refers to dscalb.o(.text) for __ARM_scalbn
    atan_x.o(i.__atan$lsc) refers to ddiv.o(.text) for __aeabi_ddiv
    atan_x.o(i.__atan$lsc) refers to dmul.o(.text) for __aeabi_dmul
    atan_x.o(i.__atan$lsc) refers to poly.o(i.__kernel_poly) for __kernel_poly
    atan_x.o(i.__atan$lsc) refers to atan_x.o(.constdata) for .constdata
    atan_x.o(.constdata) refers (Special) to iusefp.o(.text) for __I$use$fp
    atan2.o(i.__softfp_atan2) refers (Special) to iusefp.o(.text) for __I$use$fp
    atan2.o(i.__softfp_atan2) refers to atan2.o(i.atan2) for atan2
    atan2.o(i.atan2) refers (Special) to iusefp.o(.text) for __I$use$fp
    atan2.o(i.atan2) refers to dunder.o(i.__mathlib_dbl_infnan2) for __mathlib_dbl_infnan2
    atan2.o(i.atan2) refers to atan.o(i.atan) for atan
    atan2.o(i.atan2) refers to ddiv.o(.text) for __aeabi_ddiv
    atan2.o(i.atan2) refers to dadd.o(.text) for __aeabi_dsub
    atan2.o(i.atan2) refers to qnan.o(.constdata) for __mathlib_zero
    atan2_x.o(i.____softfp_atan2$lsc) refers (Special) to iusefp.o(.text) for __I$use$fp
    atan2_x.o(i.____softfp_atan2$lsc) refers to atan2_x.o(i.__atan2$lsc) for __atan2$lsc
    atan2_x.o(i.__atan2$lsc) refers (Special) to iusefp.o(.text) for __I$use$fp
    atan2_x.o(i.__atan2$lsc) refers to dunder.o(i.__mathlib_dbl_infnan2) for __mathlib_dbl_infnan2
    atan2_x.o(i.__atan2$lsc) refers to atan.o(i.atan) for atan
    atan2_x.o(i.__atan2$lsc) refers to errno.o(i.__set_errno) for __set_errno
    atan2_x.o(i.__atan2$lsc) refers to ddiv.o(.text) for __aeabi_ddiv
    atan2_x.o(i.__atan2$lsc) refers to dadd.o(.text) for __aeabi_dsub
    atan2_x.o(i.__atan2$lsc) refers to qnan.o(.constdata) for __mathlib_zero
    ceil.o(i.__softfp_ceil) refers (Special) to iusefp.o(.text) for __I$use$fp
    ceil.o(i.__softfp_ceil) refers to ceil.o(i.ceil) for ceil
    ceil.o(i.ceil) refers (Special) to iusefp.o(.text) for __I$use$fp
    ceil.o(i.ceil) refers to dadd.o(.text) for __aeabi_dadd
    ceil.o(i.ceil) refers to cdrcmple.o(.text) for __aeabi_cdrcmple
    cos.o(i.__softfp_cos) refers (Special) to iusefp.o(.text) for __I$use$fp
    cos.o(i.__softfp_cos) refers to cos.o(i.cos) for cos
    cos.o(i.cos) refers (Special) to iusefp.o(.text) for __I$use$fp
    cos.o(i.cos) refers to errno.o(i.__set_errno) for __set_errno
    cos.o(i.cos) refers to dunder.o(i.__mathlib_dbl_invalid) for __mathlib_dbl_invalid
    cos.o(i.cos) refers to dunder.o(i.__mathlib_dbl_infnan) for __mathlib_dbl_infnan
    cos.o(i.cos) refers to rred.o(i.__ieee754_rem_pio2) for __ieee754_rem_pio2
    cos.o(i.cos) refers to sin_i.o(i.__kernel_sin) for __kernel_sin
    cos.o(i.cos) refers to cos_i.o(i.__kernel_cos) for __kernel_cos
    cos_x.o(i.____softfp_cos$lsc) refers (Special) to iusefp.o(.text) for __I$use$fp
    cos_x.o(i.____softfp_cos$lsc) refers to cos_x.o(i.__cos$lsc) for __cos$lsc
    cos_x.o(i.__cos$lsc) refers (Special) to iusefp.o(.text) for __I$use$fp
    cos_x.o(i.__cos$lsc) refers to errno.o(i.__set_errno) for __set_errno
    cos_x.o(i.__cos$lsc) refers to dunder.o(i.__mathlib_dbl_infnan) for __mathlib_dbl_infnan
    cos_x.o(i.__cos$lsc) refers to rred.o(i.__ieee754_rem_pio2) for __ieee754_rem_pio2
    cos_x.o(i.__cos$lsc) refers to sin_i.o(i.__kernel_sin) for __kernel_sin
    cos_x.o(i.__cos$lsc) refers to cos_i.o(i.__kernel_cos) for __kernel_cos
    modf.o(i.__softfp_modf) refers (Special) to iusefp.o(.text) for __I$use$fp
    modf.o(i.__softfp_modf) refers to modf.o(i.modf) for modf
    modf.o(i.modf) refers (Special) to iusefp.o(.text) for __I$use$fp
    modf.o(i.modf) refers to dadd.o(.text) for __aeabi_dsub
    pow.o(i.__softfp_pow) refers (Special) to iusefp.o(.text) for __I$use$fp
    pow.o(i.__softfp_pow) refers to pow.o(i.pow) for pow
    pow.o(i.pow) refers (Special) to iusefp.o(.text) for __I$use$fp
    pow.o(i.pow) refers to dunder.o(i.__mathlib_dbl_infnan2) for __mathlib_dbl_infnan2
    pow.o(i.pow) refers to errno.o(i.__set_errno) for __set_errno
    pow.o(i.pow) refers to dunder.o(i.__mathlib_dbl_divzero) for __mathlib_dbl_divzero
    pow.o(i.pow) refers to ddiv.o(.text) for __aeabi_ddiv
    pow.o(i.pow) refers to sqrt.o(i.sqrt) for sqrt
    pow.o(i.pow) refers to dmul.o(.text) for __aeabi_dmul
    pow.o(i.pow) refers to dflti.o(.text) for __aeabi_i2d
    pow.o(i.pow) refers to dunder.o(i.__mathlib_dbl_invalid) for __mathlib_dbl_invalid
    pow.o(i.pow) refers to dunder.o(i.__mathlib_dbl_overflow) for __mathlib_dbl_overflow
    pow.o(i.pow) refers to dunder.o(i.__mathlib_dbl_underflow) for __mathlib_dbl_underflow
    pow.o(i.pow) refers to dadd.o(.text) for __aeabi_dsub
    pow.o(i.pow) refers to dscalb.o(.text) for __ARM_scalbn
    pow.o(i.pow) refers to qnan.o(.constdata) for __mathlib_zero
    pow.o(i.pow) refers to poly.o(i.__kernel_poly) for __kernel_poly
    pow.o(i.pow) refers to cdrcmple.o(.text) for __aeabi_cdrcmple
    pow.o(i.pow) refers to pow.o(.constdata) for .constdata
    pow.o(i.pow) refers to fpclassify.o(i.__ARM_fpclassify) for __ARM_fpclassify
    pow.o(.constdata) refers (Special) to iusefp.o(.text) for __I$use$fp
    pow_x.o(i.____softfp_pow$lsc) refers (Special) to iusefp.o(.text) for __I$use$fp
    pow_x.o(i.____softfp_pow$lsc) refers to pow_x.o(i.__pow$lsc) for __pow$lsc
    pow_x.o(i.__pow$lsc) refers (Special) to iusefp.o(.text) for __I$use$fp
    pow_x.o(i.__pow$lsc) refers to dunder.o(i.__mathlib_dbl_infnan2) for __mathlib_dbl_infnan2
    pow_x.o(i.__pow$lsc) refers to errno.o(i.__set_errno) for __set_errno
    pow_x.o(i.__pow$lsc) refers to ddiv.o(.text) for __aeabi_ddiv
    pow_x.o(i.__pow$lsc) refers to sqrt.o(i.sqrt) for sqrt
    pow_x.o(i.__pow$lsc) refers to dmul.o(.text) for __aeabi_dmul
    pow_x.o(i.__pow$lsc) refers to dflti.o(.text) for __aeabi_i2d
    pow_x.o(i.__pow$lsc) refers to dadd.o(.text) for __aeabi_dsub
    pow_x.o(i.__pow$lsc) refers to dscalb.o(.text) for __ARM_scalbn
    pow_x.o(i.__pow$lsc) refers to qnan.o(.constdata) for __mathlib_zero
    pow_x.o(i.__pow$lsc) refers to poly.o(i.__kernel_poly) for __kernel_poly
    pow_x.o(i.__pow$lsc) refers to cdrcmple.o(.text) for __aeabi_cdrcmple
    pow_x.o(i.__pow$lsc) refers to pow_x.o(.constdata) for .constdata
    pow_x.o(.constdata) refers (Special) to iusefp.o(.text) for __I$use$fp
    sin.o(i.__softfp_sin) refers (Special) to iusefp.o(.text) for __I$use$fp
    sin.o(i.__softfp_sin) refers to sin.o(i.sin) for sin
    sin.o(i.sin) refers (Special) to iusefp.o(.text) for __I$use$fp
    sin.o(i.sin) refers to errno.o(i.__set_errno) for __set_errno
    sin.o(i.sin) refers to dunder.o(i.__mathlib_dbl_invalid) for __mathlib_dbl_invalid
    sin.o(i.sin) refers to dunder.o(i.__mathlib_dbl_infnan) for __mathlib_dbl_infnan
    sin.o(i.sin) refers to rred.o(i.__ieee754_rem_pio2) for __ieee754_rem_pio2
    sin.o(i.sin) refers to cos_i.o(i.__kernel_cos) for __kernel_cos
    sin.o(i.sin) refers to sin_i.o(i.__kernel_sin) for __kernel_sin
    sin_x.o(i.____softfp_sin$lsc) refers (Special) to iusefp.o(.text) for __I$use$fp
    sin_x.o(i.____softfp_sin$lsc) refers to sin_x.o(i.__sin$lsc) for __sin$lsc
    sin_x.o(i.__sin$lsc) refers (Special) to iusefp.o(.text) for __I$use$fp
    sin_x.o(i.__sin$lsc) refers to errno.o(i.__set_errno) for __set_errno
    sin_x.o(i.__sin$lsc) refers to dunder.o(i.__mathlib_dbl_infnan) for __mathlib_dbl_infnan
    sin_x.o(i.__sin$lsc) refers to rred.o(i.__ieee754_rem_pio2) for __ieee754_rem_pio2
    sin_x.o(i.__sin$lsc) refers to cos_i.o(i.__kernel_cos) for __kernel_cos
    sin_x.o(i.__sin$lsc) refers to sin_i.o(i.__kernel_sin) for __kernel_sin
    sqrt.o(i.__softfp_sqrt) refers (Special) to iusefp.o(.text) for __I$use$fp
    sqrt.o(i.__softfp_sqrt) refers to dsqrt.o(.text) for _dsqrt
    sqrt.o(i.__softfp_sqrt) refers to errno.o(i.__set_errno) for __set_errno
    sqrt.o(i.sqrt) refers (Special) to iusefp.o(.text) for __I$use$fp
    sqrt.o(i.sqrt) refers to dsqrt.o(.text) for _dsqrt
    sqrt.o(i.sqrt) refers to errno.o(i.__set_errno) for __set_errno
    sqrt_x.o(i.____softfp_sqrt$lsc) refers (Special) to iusefp.o(.text) for __I$use$fp
    sqrt_x.o(i.____softfp_sqrt$lsc) refers to cdcmple.o(.text) for __aeabi_cdcmple
    sqrt_x.o(i.____softfp_sqrt$lsc) refers to errno.o(i.__set_errno) for __set_errno
    sqrt_x.o(i.____softfp_sqrt$lsc) refers to dsqrt.o(.text) for _dsqrt
    sqrt_x.o(i.__sqrt$lsc) refers (Special) to iusefp.o(.text) for __I$use$fp
    sqrt_x.o(i.__sqrt$lsc) refers to cdcmple.o(.text) for __aeabi_cdcmple
    sqrt_x.o(i.__sqrt$lsc) refers to errno.o(i.__set_errno) for __set_errno
    sqrt_x.o(i.__sqrt$lsc) refers to dsqrt.o(.text) for _dsqrt
    strtod.o(i.__softfp_strtod) refers (Special) to iusefp.o(.text) for __I$use$fp
    strtod.o(i.__softfp_strtod) refers to strtod.o(.text) for __strtod_int
    strtod.o(i.strtod) refers (Special) to iusefp.o(.text) for __I$use$fp
    strtod.o(i.strtod) refers to strtod.o(.text) for __strtod_int
    tan.o(i.__softfp_tan) refers (Special) to iusefp.o(.text) for __I$use$fp
    tan.o(i.__softfp_tan) refers to errno.o(i.__set_errno) for __set_errno
    tan.o(i.__softfp_tan) refers to dunder.o(i.__mathlib_dbl_invalid) for __mathlib_dbl_invalid
    tan.o(i.__softfp_tan) refers to dunder.o(i.__mathlib_dbl_infnan) for __mathlib_dbl_infnan
    tan.o(i.__softfp_tan) refers to rred.o(i.__ieee754_rem_pio2) for __ieee754_rem_pio2
    tan.o(i.__softfp_tan) refers to tan_i.o(i.__kernel_tan) for __kernel_tan
    tan.o(i.tan) refers (Special) to iusefp.o(.text) for __I$use$fp
    tan.o(i.tan) refers to errno.o(i.__set_errno) for __set_errno
    tan.o(i.tan) refers to dunder.o(i.__mathlib_dbl_invalid) for __mathlib_dbl_invalid
    tan.o(i.tan) refers to dunder.o(i.__mathlib_dbl_infnan) for __mathlib_dbl_infnan
    tan.o(i.tan) refers to rred.o(i.__ieee754_rem_pio2) for __ieee754_rem_pio2
    tan.o(i.tan) refers to tan_i.o(i.__kernel_tan) for __kernel_tan
    tan_x.o(i.____softfp_tan$lsc) refers (Special) to iusefp.o(.text) for __I$use$fp
    tan_x.o(i.____softfp_tan$lsc) refers to errno.o(i.__set_errno) for __set_errno
    tan_x.o(i.____softfp_tan$lsc) refers to dunder.o(i.__mathlib_dbl_infnan) for __mathlib_dbl_infnan
    tan_x.o(i.____softfp_tan$lsc) refers to rred.o(i.__ieee754_rem_pio2) for __ieee754_rem_pio2
    tan_x.o(i.____softfp_tan$lsc) refers to tan_i.o(i.__kernel_tan) for __kernel_tan
    tan_x.o(i.__tan$lsc) refers (Special) to iusefp.o(.text) for __I$use$fp
    tan_x.o(i.__tan$lsc) refers to errno.o(i.__set_errno) for __set_errno
    tan_x.o(i.__tan$lsc) refers to dunder.o(i.__mathlib_dbl_infnan) for __mathlib_dbl_infnan
    tan_x.o(i.__tan$lsc) refers to rred.o(i.__ieee754_rem_pio2) for __ieee754_rem_pio2
    tan_x.o(i.__tan$lsc) refers to tan_i.o(i.__kernel_tan) for __kernel_tan
    entry.o(.ARM.Collect$$$$00000000) refers (Special) to entry10a.o(.ARM.Collect$$$$0000000D) for __rt_final_cpp
    entry.o(.ARM.Collect$$$$00000000) refers (Special) to entry11a.o(.ARM.Collect$$$$0000000F) for __rt_final_exit
    entry.o(.ARM.Collect$$$$00000000) refers (Special) to entry7b.o(.ARM.Collect$$$$00000008) for _main_clock
    entry.o(.ARM.Collect$$$$00000000) refers (Special) to entry8b.o(.ARM.Collect$$$$0000000A) for _main_cpp_init
    entry.o(.ARM.Collect$$$$00000000) refers (Special) to entry9a.o(.ARM.Collect$$$$0000000B) for _main_init
    entry.o(.ARM.Collect$$$$00000000) refers (Special) to entry5.o(.ARM.Collect$$$$00000004) for _main_scatterload
    entry.o(.ARM.Collect$$$$00000000) refers (Special) to entry2.o(.ARM.Collect$$$$00000001) for _main_stk
    ctype_o.o(.text) refers to ctype_o.o(.constdata) for .constdata
    ctype_o.o(.constdata) refers to ctype_o.o(.constdata) for __ctype_table
    isalnum_o.o(.text) refers to ctype_o.o(.text) for __rt_ctype_table
    isalpha_o.o(.text) refers to ctype_o.o(.text) for __rt_ctype_table
    isblank_o.o(.text) refers to ctype_o.o(.constdata) for __ctype_table
    iscntrl_o.o(.text) refers to ctype_o.o(.text) for __rt_ctype_table
    isdigit_o.o(.text) refers to ctype_o.o(.text) for __rt_ctype_table
    isgraph_o.o(.text) refers to ctype_o.o(.text) for __rt_ctype_table
    islower_o.o(.text) refers to ctype_o.o(.text) for __rt_ctype_table
    isprint_o.o(.text) refers to ctype_o.o(.text) for __rt_ctype_table
    ispunct_o.o(.text) refers to ctype_o.o(.text) for __rt_ctype_table
    isspace_o.o(.text) refers to ctype_o.o(.text) for __rt_ctype_table
    isupper_o.o(.text) refers to ctype_o.o(.text) for __rt_ctype_table
    isxdigit_o.o(.text) refers to ctype_o.o(.text) for __rt_ctype_table
    rand.o(.text) refers to rand.o(.data) for .data
    printfb.o(i.__0fprintf$bare) refers to printfb.o(i._printf_core) for _printf_core
    printfb.o(i.__0fprintf$bare) refers to bsp_usart1.o(i.fputc) for fputc
    printfb.o(i.__0printf$bare) refers to printfb.o(i._printf_core) for _printf_core
    printfb.o(i.__0printf$bare) refers to bsp_usart1.o(i.fputc) for fputc
    printfb.o(i.__0printf$bare) refers to stdout.o(.data) for __stdout
    printfb.o(i.__0snprintf$bare) refers to printfb.o(i._printf_core) for _printf_core
    printfb.o(i.__0snprintf$bare) refers to printfb.o(i._snputc) for _snputc
    printfb.o(i.__0sprintf$bare) refers to printfb.o(i._printf_core) for _printf_core
    printfb.o(i.__0sprintf$bare) refers to printfb.o(i._sputc) for _sputc
    printfb.o(i.__0vfprintf$bare) refers to printfb.o(i._printf_core) for _printf_core
    printfb.o(i.__0vfprintf$bare) refers to bsp_usart1.o(i.fputc) for fputc
    printfb.o(i.__0vprintf$bare) refers to printfb.o(i._printf_core) for _printf_core
    printfb.o(i.__0vprintf$bare) refers to bsp_usart1.o(i.fputc) for fputc
    printfb.o(i.__0vprintf$bare) refers to stdout.o(.data) for __stdout
    printfb.o(i.__0vsnprintf$bare) refers to printfb.o(i._printf_core) for _printf_core
    printfb.o(i.__0vsnprintf$bare) refers to printfb.o(i._snputc) for _snputc
    printfb.o(i.__0vsprintf$bare) refers to printfb.o(i._printf_core) for _printf_core
    printfb.o(i.__0vsprintf$bare) refers to printfb.o(i._sputc) for _sputc
    printf0.o(i.__0fprintf$0) refers to printf0.o(i._printf_core) for _printf_core
    printf0.o(i.__0fprintf$0) refers to bsp_usart1.o(i.fputc) for fputc
    printf0.o(i.__0printf$0) refers to printf0.o(i._printf_core) for _printf_core
    printf0.o(i.__0printf$0) refers to bsp_usart1.o(i.fputc) for fputc
    printf0.o(i.__0printf$0) refers to stdout.o(.data) for __stdout
    printf0.o(i.__0snprintf$0) refers to printf0.o(i._printf_core) for _printf_core
    printf0.o(i.__0snprintf$0) refers to printf0.o(i._snputc) for _snputc
    printf0.o(i.__0sprintf$0) refers to printf0.o(i._printf_core) for _printf_core
    printf0.o(i.__0sprintf$0) refers to printf0.o(i._sputc) for _sputc
    printf0.o(i.__0vfprintf$0) refers to printf0.o(i._printf_core) for _printf_core
    printf0.o(i.__0vfprintf$0) refers to bsp_usart1.o(i.fputc) for fputc
    printf0.o(i.__0vprintf$0) refers to printf0.o(i._printf_core) for _printf_core
    printf0.o(i.__0vprintf$0) refers to bsp_usart1.o(i.fputc) for fputc
    printf0.o(i.__0vprintf$0) refers to stdout.o(.data) for __stdout
    printf0.o(i.__0vsnprintf$0) refers to printf0.o(i._printf_core) for _printf_core
    printf0.o(i.__0vsnprintf$0) refers to printf0.o(i._snputc) for _snputc
    printf0.o(i.__0vsprintf$0) refers to printf0.o(i._printf_core) for _printf_core
    printf0.o(i.__0vsprintf$0) refers to printf0.o(i._sputc) for _sputc
    printf1.o(i.__0fprintf$1) refers to printf1.o(i._printf_core) for _printf_core
    printf1.o(i.__0fprintf$1) refers to bsp_usart1.o(i.fputc) for fputc
    printf1.o(i.__0printf$1) refers to printf1.o(i._printf_core) for _printf_core
    printf1.o(i.__0printf$1) refers to bsp_usart1.o(i.fputc) for fputc
    printf1.o(i.__0printf$1) refers to stdout.o(.data) for __stdout
    printf1.o(i.__0snprintf$1) refers to printf1.o(i._printf_core) for _printf_core
    printf1.o(i.__0snprintf$1) refers to printf1.o(i._snputc) for _snputc
    printf1.o(i.__0sprintf$1) refers to printf1.o(i._printf_core) for _printf_core
    printf1.o(i.__0sprintf$1) refers to printf1.o(i._sputc) for _sputc
    printf1.o(i.__0vfprintf$1) refers to printf1.o(i._printf_core) for _printf_core
    printf1.o(i.__0vfprintf$1) refers to bsp_usart1.o(i.fputc) for fputc
    printf1.o(i.__0vprintf$1) refers to printf1.o(i._printf_core) for _printf_core
    printf1.o(i.__0vprintf$1) refers to bsp_usart1.o(i.fputc) for fputc
    printf1.o(i.__0vprintf$1) refers to stdout.o(.data) for __stdout
    printf1.o(i.__0vsnprintf$1) refers to printf1.o(i._printf_core) for _printf_core
    printf1.o(i.__0vsnprintf$1) refers to printf1.o(i._snputc) for _snputc
    printf1.o(i.__0vsprintf$1) refers to printf1.o(i._printf_core) for _printf_core
    printf1.o(i.__0vsprintf$1) refers to printf1.o(i._sputc) for _sputc
    printf1.o(i._printf_core) refers to uidiv.o(.text) for __aeabi_uidivmod
    printf2.o(i.__0fprintf$2) refers to printf2.o(i._printf_core) for _printf_core
    printf2.o(i.__0fprintf$2) refers to bsp_usart1.o(i.fputc) for fputc
    printf2.o(i.__0printf$2) refers to printf2.o(i._printf_core) for _printf_core
    printf2.o(i.__0printf$2) refers to bsp_usart1.o(i.fputc) for fputc
    printf2.o(i.__0printf$2) refers to stdout.o(.data) for __stdout
    printf2.o(i.__0snprintf$2) refers to printf2.o(i._printf_core) for _printf_core
    printf2.o(i.__0snprintf$2) refers to printf2.o(i._snputc) for _snputc
    printf2.o(i.__0sprintf$2) refers to printf2.o(i._printf_core) for _printf_core
    printf2.o(i.__0sprintf$2) refers to printf2.o(i._sputc) for _sputc
    printf2.o(i.__0vfprintf$2) refers to printf2.o(i._printf_core) for _printf_core
    printf2.o(i.__0vfprintf$2) refers to bsp_usart1.o(i.fputc) for fputc
    printf2.o(i.__0vprintf$2) refers to printf2.o(i._printf_core) for _printf_core
    printf2.o(i.__0vprintf$2) refers to bsp_usart1.o(i.fputc) for fputc
    printf2.o(i.__0vprintf$2) refers to stdout.o(.data) for __stdout
    printf2.o(i.__0vsnprintf$2) refers to printf2.o(i._printf_core) for _printf_core
    printf2.o(i.__0vsnprintf$2) refers to printf2.o(i._snputc) for _snputc
    printf2.o(i.__0vsprintf$2) refers to printf2.o(i._printf_core) for _printf_core
    printf2.o(i.__0vsprintf$2) refers to printf2.o(i._sputc) for _sputc
    printf3.o(i.__0fprintf$3) refers to printf3.o(i._printf_core) for _printf_core
    printf3.o(i.__0fprintf$3) refers to bsp_usart1.o(i.fputc) for fputc
    printf3.o(i.__0printf$3) refers to printf3.o(i._printf_core) for _printf_core
    printf3.o(i.__0printf$3) refers to bsp_usart1.o(i.fputc) for fputc
    printf3.o(i.__0printf$3) refers to stdout.o(.data) for __stdout
    printf3.o(i.__0snprintf$3) refers to printf3.o(i._printf_core) for _printf_core
    printf3.o(i.__0snprintf$3) refers to printf3.o(i._snputc) for _snputc
    printf3.o(i.__0sprintf$3) refers to printf3.o(i._printf_core) for _printf_core
    printf3.o(i.__0sprintf$3) refers to printf3.o(i._sputc) for _sputc
    printf3.o(i.__0vfprintf$3) refers to printf3.o(i._printf_core) for _printf_core
    printf3.o(i.__0vfprintf$3) refers to bsp_usart1.o(i.fputc) for fputc
    printf3.o(i.__0vprintf$3) refers to printf3.o(i._printf_core) for _printf_core
    printf3.o(i.__0vprintf$3) refers to bsp_usart1.o(i.fputc) for fputc
    printf3.o(i.__0vprintf$3) refers to stdout.o(.data) for __stdout
    printf3.o(i.__0vsnprintf$3) refers to printf3.o(i._printf_core) for _printf_core
    printf3.o(i.__0vsnprintf$3) refers to printf3.o(i._snputc) for _snputc
    printf3.o(i.__0vsprintf$3) refers to printf3.o(i._printf_core) for _printf_core
    printf3.o(i.__0vsprintf$3) refers to printf3.o(i._sputc) for _sputc
    printf3.o(i._printf_core) refers to uidiv.o(.text) for __aeabi_uidivmod
    printf4.o(i.__0fprintf$4) refers to printf4.o(i._printf_core) for _printf_core
    printf4.o(i.__0fprintf$4) refers to bsp_usart1.o(i.fputc) for fputc
    printf4.o(i.__0printf$4) refers to printf4.o(i._printf_core) for _printf_core
    printf4.o(i.__0printf$4) refers to bsp_usart1.o(i.fputc) for fputc
    printf4.o(i.__0printf$4) refers to stdout.o(.data) for __stdout
    printf4.o(i.__0snprintf$4) refers to printf4.o(i._printf_core) for _printf_core
    printf4.o(i.__0snprintf$4) refers to printf4.o(i._snputc) for _snputc
    printf4.o(i.__0sprintf$4) refers to printf4.o(i._printf_core) for _printf_core
    printf4.o(i.__0sprintf$4) refers to printf4.o(i._sputc) for _sputc
    printf4.o(i.__0vfprintf$4) refers to printf4.o(i._printf_core) for _printf_core
    printf4.o(i.__0vfprintf$4) refers to bsp_usart1.o(i.fputc) for fputc
    printf4.o(i.__0vprintf$4) refers to printf4.o(i._printf_core) for _printf_core
    printf4.o(i.__0vprintf$4) refers to bsp_usart1.o(i.fputc) for fputc
    printf4.o(i.__0vprintf$4) refers to stdout.o(.data) for __stdout
    printf4.o(i.__0vsnprintf$4) refers to printf4.o(i._printf_core) for _printf_core
    printf4.o(i.__0vsnprintf$4) refers to printf4.o(i._snputc) for _snputc
    printf4.o(i.__0vsprintf$4) refers to printf4.o(i._printf_core) for _printf_core
    printf4.o(i.__0vsprintf$4) refers to printf4.o(i._sputc) for _sputc
    printf4.o(i._printf_core) refers to uldiv.o(.text) for __aeabi_uldivmod
    printf5.o(i.__0fprintf$5) refers to printf5.o(i._printf_core) for _printf_core
    printf5.o(i.__0fprintf$5) refers to bsp_usart1.o(i.fputc) for fputc
    printf5.o(i.__0printf$5) refers to printf5.o(i._printf_core) for _printf_core
    printf5.o(i.__0printf$5) refers to bsp_usart1.o(i.fputc) for fputc
    printf5.o(i.__0printf$5) refers to stdout.o(.data) for __stdout
    printf5.o(i.__0snprintf$5) refers to printf5.o(i._printf_core) for _printf_core
    printf5.o(i.__0snprintf$5) refers to printf5.o(i._snputc) for _snputc
    printf5.o(i.__0sprintf$5) refers to printf5.o(i._printf_core) for _printf_core
    printf5.o(i.__0sprintf$5) refers to printf5.o(i._sputc) for _sputc
    printf5.o(i.__0vfprintf$5) refers to printf5.o(i._printf_core) for _printf_core
    printf5.o(i.__0vfprintf$5) refers to bsp_usart1.o(i.fputc) for fputc
    printf5.o(i.__0vprintf$5) refers to printf5.o(i._printf_core) for _printf_core
    printf5.o(i.__0vprintf$5) refers to bsp_usart1.o(i.fputc) for fputc
    printf5.o(i.__0vprintf$5) refers to stdout.o(.data) for __stdout
    printf5.o(i.__0vsnprintf$5) refers to printf5.o(i._printf_core) for _printf_core
    printf5.o(i.__0vsnprintf$5) refers to printf5.o(i._snputc) for _snputc
    printf5.o(i.__0vsprintf$5) refers to printf5.o(i._printf_core) for _printf_core
    printf5.o(i.__0vsprintf$5) refers to printf5.o(i._sputc) for _sputc
    printf5.o(i._printf_core) refers to uldiv.o(.text) for __aeabi_uldivmod
    printf6.o(i.__0fprintf$6) refers to printf6.o(i._printf_core) for _printf_core
    printf6.o(i.__0fprintf$6) refers to bsp_usart1.o(i.fputc) for fputc
    printf6.o(i.__0printf$6) refers to printf6.o(i._printf_core) for _printf_core
    printf6.o(i.__0printf$6) refers to bsp_usart1.o(i.fputc) for fputc
    printf6.o(i.__0printf$6) refers to stdout.o(.data) for __stdout
    printf6.o(i.__0snprintf$6) refers to printf6.o(i._printf_core) for _printf_core
    printf6.o(i.__0snprintf$6) refers to printf6.o(i._snputc) for _snputc
    printf6.o(i.__0sprintf$6) refers to printf6.o(i._printf_core) for _printf_core
    printf6.o(i.__0sprintf$6) refers to printf6.o(i._sputc) for _sputc
    printf6.o(i.__0vfprintf$6) refers to printf6.o(i._printf_core) for _printf_core
    printf6.o(i.__0vfprintf$6) refers to bsp_usart1.o(i.fputc) for fputc
    printf6.o(i.__0vprintf$6) refers to printf6.o(i._printf_core) for _printf_core
    printf6.o(i.__0vprintf$6) refers to bsp_usart1.o(i.fputc) for fputc
    printf6.o(i.__0vprintf$6) refers to stdout.o(.data) for __stdout
    printf6.o(i.__0vsnprintf$6) refers to printf6.o(i._printf_core) for _printf_core
    printf6.o(i.__0vsnprintf$6) refers to printf6.o(i._snputc) for _snputc
    printf6.o(i.__0vsprintf$6) refers to printf6.o(i._printf_core) for _printf_core
    printf6.o(i.__0vsprintf$6) refers to printf6.o(i._sputc) for _sputc
    printf6.o(i._printf_core) refers to printf6.o(i._printf_pre_padding) for _printf_pre_padding
    printf6.o(i._printf_core) refers to uidiv.o(.text) for __aeabi_uidivmod
    printf6.o(i._printf_core) refers to printf6.o(i._printf_post_padding) for _printf_post_padding
    printf7.o(i.__0fprintf$7) refers to printf7.o(i._printf_core) for _printf_core
    printf7.o(i.__0fprintf$7) refers to bsp_usart1.o(i.fputc) for fputc
    printf7.o(i.__0printf$7) refers to printf7.o(i._printf_core) for _printf_core
    printf7.o(i.__0printf$7) refers to bsp_usart1.o(i.fputc) for fputc
    printf7.o(i.__0printf$7) refers to stdout.o(.data) for __stdout
    printf7.o(i.__0snprintf$7) refers to printf7.o(i._printf_core) for _printf_core
    printf7.o(i.__0snprintf$7) refers to printf7.o(i._snputc) for _snputc
    printf7.o(i.__0sprintf$7) refers to printf7.o(i._printf_core) for _printf_core
    printf7.o(i.__0sprintf$7) refers to printf7.o(i._sputc) for _sputc
    printf7.o(i.__0vfprintf$7) refers to printf7.o(i._printf_core) for _printf_core
    printf7.o(i.__0vfprintf$7) refers to bsp_usart1.o(i.fputc) for fputc
    printf7.o(i.__0vprintf$7) refers to printf7.o(i._printf_core) for _printf_core
    printf7.o(i.__0vprintf$7) refers to bsp_usart1.o(i.fputc) for fputc
    printf7.o(i.__0vprintf$7) refers to stdout.o(.data) for __stdout
    printf7.o(i.__0vsnprintf$7) refers to printf7.o(i._printf_core) for _printf_core
    printf7.o(i.__0vsnprintf$7) refers to printf7.o(i._snputc) for _snputc
    printf7.o(i.__0vsprintf$7) refers to printf7.o(i._printf_core) for _printf_core
    printf7.o(i.__0vsprintf$7) refers to printf7.o(i._sputc) for _sputc
    printf7.o(i._printf_core) refers to printf7.o(i._printf_pre_padding) for _printf_pre_padding
    printf7.o(i._printf_core) refers to uldiv.o(.text) for __aeabi_uldivmod
    printf7.o(i._printf_core) refers to printf7.o(i._printf_post_padding) for _printf_post_padding
    printf8.o(i.__0fprintf$8) refers to printf8.o(i._printf_core) for _printf_core
    printf8.o(i.__0fprintf$8) refers to bsp_usart1.o(i.fputc) for fputc
    printf8.o(i.__0printf$8) refers to printf8.o(i._printf_core) for _printf_core
    printf8.o(i.__0printf$8) refers to bsp_usart1.o(i.fputc) for fputc
    printf8.o(i.__0printf$8) refers to stdout.o(.data) for __stdout
    printf8.o(i.__0snprintf$8) refers to printf8.o(i._printf_core) for _printf_core
    printf8.o(i.__0snprintf$8) refers to printf8.o(i._snputc) for _snputc
    printf8.o(i.__0sprintf$8) refers to printf8.o(i._printf_core) for _printf_core
    printf8.o(i.__0sprintf$8) refers to printf8.o(i._sputc) for _sputc
    printf8.o(i.__0vfprintf$8) refers to printf8.o(i._printf_core) for _printf_core
    printf8.o(i.__0vfprintf$8) refers to bsp_usart1.o(i.fputc) for fputc
    printf8.o(i.__0vprintf$8) refers to printf8.o(i._printf_core) for _printf_core
    printf8.o(i.__0vprintf$8) refers to bsp_usart1.o(i.fputc) for fputc
    printf8.o(i.__0vprintf$8) refers to stdout.o(.data) for __stdout
    printf8.o(i.__0vsnprintf$8) refers to printf8.o(i._printf_core) for _printf_core
    printf8.o(i.__0vsnprintf$8) refers to printf8.o(i._snputc) for _snputc
    printf8.o(i.__0vsprintf$8) refers to printf8.o(i._printf_core) for _printf_core
    printf8.o(i.__0vsprintf$8) refers to printf8.o(i._sputc) for _sputc
    printf8.o(i._printf_core) refers to printf8.o(i._printf_pre_padding) for _printf_pre_padding
    printf8.o(i._printf_core) refers to uldiv.o(.text) for __aeabi_uldivmod
    printf8.o(i._printf_core) refers to printf8.o(i._printf_post_padding) for _printf_post_padding
    printfa.o(i.__0fprintf) refers (Special) to iusefp.o(.text) for __I$use$fp
    printfa.o(i.__0fprintf) refers to printfa.o(i._printf_core) for _printf_core
    printfa.o(i.__0fprintf) refers to bsp_usart1.o(i.fputc) for fputc
    printfa.o(i.__0printf) refers (Special) to iusefp.o(.text) for __I$use$fp
    printfa.o(i.__0printf) refers to printfa.o(i._printf_core) for _printf_core
    printfa.o(i.__0printf) refers to bsp_usart1.o(i.fputc) for fputc
    printfa.o(i.__0printf) refers to stdout.o(.data) for __stdout
    printfa.o(i.__0snprintf) refers (Special) to iusefp.o(.text) for __I$use$fp
    printfa.o(i.__0snprintf) refers to printfa.o(i._printf_core) for _printf_core
    printfa.o(i.__0snprintf) refers to printfa.o(i._snputc) for _snputc
    printfa.o(i.__0sprintf) refers (Special) to iusefp.o(.text) for __I$use$fp
    printfa.o(i.__0sprintf) refers to printfa.o(i._printf_core) for _printf_core
    printfa.o(i.__0sprintf) refers to printfa.o(i._sputc) for _sputc
    printfa.o(i.__0vfprintf) refers (Special) to iusefp.o(.text) for __I$use$fp
    printfa.o(i.__0vfprintf) refers to printfa.o(i._printf_core) for _printf_core
    printfa.o(i.__0vfprintf) refers to bsp_usart1.o(i.fputc) for fputc
    printfa.o(i.__0vprintf) refers (Special) to iusefp.o(.text) for __I$use$fp
    printfa.o(i.__0vprintf) refers to printfa.o(i._printf_core) for _printf_core
    printfa.o(i.__0vprintf) refers to bsp_usart1.o(i.fputc) for fputc
    printfa.o(i.__0vprintf) refers to stdout.o(.data) for __stdout
    printfa.o(i.__0vsnprintf) refers (Special) to iusefp.o(.text) for __I$use$fp
    printfa.o(i.__0vsnprintf) refers to printfa.o(i._printf_core) for _printf_core
    printfa.o(i.__0vsnprintf) refers to printfa.o(i._snputc) for _snputc
    printfa.o(i.__0vsprintf) refers (Special) to iusefp.o(.text) for __I$use$fp
    printfa.o(i.__0vsprintf) refers to printfa.o(i._printf_core) for _printf_core
    printfa.o(i.__0vsprintf) refers to printfa.o(i._sputc) for _sputc
    printfa.o(i._fp_digits) refers (Special) to iusefp.o(.text) for __I$use$fp
    printfa.o(i._fp_digits) refers to dmul.o(.text) for __aeabi_dmul
    printfa.o(i._fp_digits) refers to ddiv.o(.text) for __aeabi_ddiv
    printfa.o(i._fp_digits) refers to cdrcmple.o(.text) for __aeabi_cdrcmple
    printfa.o(i._fp_digits) refers to dadd.o(.text) for __aeabi_dadd
    printfa.o(i._fp_digits) refers to dfixul.o(.text) for __aeabi_d2ulz
    printfa.o(i._fp_digits) refers to uldiv.o(.text) for __aeabi_uldivmod
    printfa.o(i._printf_core) refers (Special) to iusefp.o(.text) for __I$use$fp
    printfa.o(i._printf_core) refers to printfa.o(i._printf_pre_padding) for _printf_pre_padding
    printfa.o(i._printf_core) refers to uldiv.o(.text) for __aeabi_uldivmod
    printfa.o(i._printf_core) refers to printfa.o(i._printf_post_padding) for _printf_post_padding
    printfa.o(i._printf_core) refers to printfa.o(i._fp_digits) for _fp_digits
    printfa.o(i._printf_core) refers to uidiv.o(.text) for __aeabi_uidivmod
    printfa.o(i._printf_post_padding) refers (Special) to iusefp.o(.text) for __I$use$fp
    printfa.o(i._printf_pre_padding) refers (Special) to iusefp.o(.text) for __I$use$fp
    printfa.o(i._snputc) refers (Special) to iusefp.o(.text) for __I$use$fp
    printfa.o(i._sputc) refers (Special) to iusefp.o(.text) for __I$use$fp
    malloc.o(i.free) refers to mvars.o(.data) for __microlib_freelist
    malloc.o(i.malloc) refers to mvars.o(.data) for __microlib_freelist_initialised
    malloc.o(i.malloc) refers to mvars.o(.data) for __microlib_freelist
    malloc.o(i.malloc) refers to startup_stm32f10x_hd.o(HEAP) for __heap_base
    mallocr.o(i.__free$realloc) refers to mvars.o(.data) for __microlib_freelist
    mallocr.o(i.__malloc$realloc) refers to mallocr.o(i.internal_alloc) for internal_alloc
    mallocr.o(i.__malloc$realloc) refers to mvars.o(.data) for __microlib_freelist_initialised
    mallocr.o(i.__malloc$realloc) refers to startup_stm32f10x_hd.o(HEAP) for __heap_base
    mallocr.o(i.__malloc$realloc) refers to mvars.o(.data) for __microlib_freelist
    mallocr.o(i.internal_alloc) refers to memcpya.o(.text) for __aeabi_memcpy
    mallocr.o(i.internal_alloc) refers to mvars.o(.data) for __microlib_freelist
    mallocr.o(i.realloc) refers to mallocr.o(i.__free$realloc) for __free$realloc
    mallocr.o(i.realloc) refers to mallocr.o(i.internal_alloc) for internal_alloc
    mallocr.o(i.realloc) refers to mallocr.o(i.__malloc$realloc) for __malloc$realloc
    mallocr.o(i.realloc) refers to mvars.o(.data) for __microlib_freelist
    malloca.o(i.__aligned_malloc) refers to mvars.o(.data) for __microlib_freelist_initialised
    malloca.o(i.__aligned_malloc) refers to mvars.o(.data) for __microlib_freelist
    malloca.o(i.__aligned_malloc) refers to startup_stm32f10x_hd.o(HEAP) for __heap_base
    malloca.o(i.__free$memalign) refers to mvars.o(.data) for __microlib_freelist
    malloca.o(i.__malloc$memalign) refers to malloca.o(i.__aligned_malloc) for __aligned_malloc
    mallocra.o(i.__aligned_malloc$realloc) refers to mallocra.o(i.internal_alloc) for internal_alloc
    mallocra.o(i.__aligned_malloc$realloc) refers to mvars.o(.data) for __microlib_freelist_initialised
    mallocra.o(i.__aligned_malloc$realloc) refers to startup_stm32f10x_hd.o(HEAP) for __heap_base
    mallocra.o(i.__aligned_malloc$realloc) refers to mvars.o(.data) for __microlib_freelist
    mallocra.o(i.__free$realloc$memalign) refers to mvars.o(.data) for __microlib_freelist
    mallocra.o(i.__malloc$realloc$memalign) refers to mallocra.o(i.__aligned_malloc$realloc) for __aligned_malloc$realloc
    mallocra.o(i.__realloc$memalign) refers to mallocra.o(i.__free$realloc$memalign) for __free$realloc$memalign
    mallocra.o(i.__realloc$memalign) refers to mallocra.o(i.internal_alloc) for internal_alloc
    mallocra.o(i.__realloc$memalign) refers to mallocra.o(i.__malloc$realloc$memalign) for __malloc$realloc$memalign
    mallocra.o(i.__realloc$memalign) refers to mvars.o(.data) for __microlib_freelist
    mallocra.o(i.internal_alloc) refers to memcpya.o(.text) for __aeabi_memcpy
    mallocra.o(i.internal_alloc) refers to mvars.o(.data) for __microlib_freelist
    strtol.o(.text) refers to ctype_o.o(.text) for __rt_ctype_table
    strtol.o(.text) refers to _strtoul.o(.text) for _strtoul
    strtol.o(.text) refers to errno.o(i.__aeabi_errno_addr) for __aeabi_errno_addr
    fadd.o(.text) refers (Special) to iusefp.o(.text) for __I$use$fp
    fadd.o(.text) refers to fepilogue.o(.text) for _float_epilogue
    dadd.o(.text) refers (Special) to iusefp.o(.text) for __I$use$fp
    dadd.o(.text) refers to llshl.o(.text) for __aeabi_llsl
    dadd.o(.text) refers to llsshr.o(.text) for __aeabi_lasr
    dadd.o(.text) refers to depilogue.o(.text) for _double_epilogue
    dmul.o(.text) refers (Special) to iusefp.o(.text) for __I$use$fp
    dmul.o(.text) refers to depilogue.o(.text) for _double_epilogue
    ddiv.o(.text) refers (Special) to iusefp.o(.text) for __I$use$fp
    ddiv.o(.text) refers to depilogue.o(.text) for _double_round
    dscalb.o(.text) refers (Special) to iusefp.o(.text) for __I$use$fp
    ffltui.o(.text) refers (Special) to iusefp.o(.text) for __I$use$fp
    ffltui.o(.text) refers to fepilogue.o(.text) for _float_epilogue
    dflti.o(.text) refers (Special) to iusefp.o(.text) for __I$use$fp
    dflti.o(.text) refers to depilogue.o(.text) for _double_epilogue
    dfltui.o(.text) refers (Special) to iusefp.o(.text) for __I$use$fp
    dfltui.o(.text) refers to depilogue.o(.text) for _double_epilogue
    ffixui.o(.text) refers (Special) to iusefp.o(.text) for __I$use$fp
    dfixi.o(.text) refers (Special) to iusefp.o(.text) for __I$use$fp
    dfixi.o(.text) refers to llushr.o(.text) for __aeabi_llsr
    f2d.o(.text) refers (Special) to iusefp.o(.text) for __I$use$fp
    cdcmple.o(.text) refers (Special) to iusefp.o(.text) for __I$use$fp
    cdrcmple.o(.text) refers (Special) to iusefp.o(.text) for __I$use$fp
    d2f.o(.text) refers (Special) to iusefp.o(.text) for __I$use$fp
    d2f.o(.text) refers to fepilogue.o(.text) for _float_round
    cos_i.o(i.__kernel_cos) refers (Special) to iusefp.o(.text) for __I$use$fp
    cos_i.o(i.__kernel_cos) refers to dfixi.o(.text) for __aeabi_d2iz
    cos_i.o(i.__kernel_cos) refers to dmul.o(.text) for __aeabi_dmul
    cos_i.o(i.__kernel_cos) refers to poly.o(i.__kernel_poly) for __kernel_poly
    cos_i.o(i.__kernel_cos) refers to dadd.o(.text) for __aeabi_dsub
    cos_i.o(i.__kernel_cos) refers to dscalb.o(.text) for __ARM_scalbn
    cos_i.o(i.__kernel_cos) refers to cos_i.o(.constdata) for .constdata
    cos_i.o(.constdata) refers (Special) to iusefp.o(.text) for __I$use$fp
    dunder.o(i.__mathlib_dbl_divzero) refers to ddiv.o(.text) for __aeabi_ddiv
    dunder.o(i.__mathlib_dbl_infnan) refers to dscalb.o(.text) for __ARM_scalbn
    dunder.o(i.__mathlib_dbl_infnan2) refers to dadd.o(.text) for __aeabi_dadd
    dunder.o(i.__mathlib_dbl_invalid) refers to ddiv.o(.text) for __aeabi_ddiv
    dunder.o(i.__mathlib_dbl_overflow) refers to dscalb.o(.text) for __ARM_scalbn
    dunder.o(i.__mathlib_dbl_posinfnan) refers to dmul.o(.text) for __aeabi_dmul
    dunder.o(i.__mathlib_dbl_underflow) refers to dscalb.o(.text) for __ARM_scalbn
    fpclassify.o(i.__ARM_fpclassify) refers (Special) to iusefp.o(.text) for __I$use$fp
    poly.o(i.__kernel_poly) refers (Special) to iusefp.o(.text) for __I$use$fp
    poly.o(i.__kernel_poly) refers to dmul.o(.text) for __aeabi_dmul
    poly.o(i.__kernel_poly) refers to dadd.o(.text) for __aeabi_dadd
    qnan.o(.constdata) refers (Special) to iusefp.o(.text) for __I$use$fp
    rred.o(i.__ieee754_rem_pio2) refers (Special) to iusefp.o(.text) for __I$use$fp
    rred.o(i.__ieee754_rem_pio2) refers to dadd.o(.text) for __aeabi_dsub
    rred.o(i.__ieee754_rem_pio2) refers to dmul.o(.text) for __aeabi_dmul
    rred.o(i.__ieee754_rem_pio2) refers to dfixi.o(.text) for __aeabi_d2iz
    rred.o(i.__ieee754_rem_pio2) refers to dflti.o(.text) for __aeabi_i2d
    rred.o(i.__ieee754_rem_pio2) refers to dfltui.o(.text) for __aeabi_ui2d
    rred.o(i.__ieee754_rem_pio2) refers to dscalb.o(.text) for __ARM_scalbn
    rred.o(i.__ieee754_rem_pio2) refers to rred.o(.constdata) for .constdata
    rred.o(i.__use_accurate_range_reduction) refers (Special) to iusefp.o(.text) for __I$use$fp
    rred.o(.constdata) refers (Special) to iusefp.o(.text) for __I$use$fp
    sin_i.o(i.__kernel_sin) refers (Special) to iusefp.o(.text) for __I$use$fp
    sin_i.o(i.__kernel_sin) refers to fpclassify.o(i.__ARM_fpclassify) for __ARM_fpclassify
    sin_i.o(i.__kernel_sin) refers to dunder.o(i.__mathlib_dbl_underflow) for __mathlib_dbl_underflow
    sin_i.o(i.__kernel_sin) refers to dmul.o(.text) for __aeabi_dmul
    sin_i.o(i.__kernel_sin) refers to poly.o(i.__kernel_poly) for __kernel_poly
    sin_i.o(i.__kernel_sin) refers to dscalb.o(.text) for __ARM_scalbn
    sin_i.o(i.__kernel_sin) refers to dadd.o(.text) for __aeabi_dsub
    sin_i.o(i.__kernel_sin) refers to sin_i.o(.constdata) for .constdata
    sin_i.o(.constdata) refers (Special) to iusefp.o(.text) for __I$use$fp
    sin_i_x.o(i.____kernel_sin$lsc) refers (Special) to iusefp.o(.text) for __I$use$fp
    sin_i_x.o(i.____kernel_sin$lsc) refers to dmul.o(.text) for __aeabi_dmul
    sin_i_x.o(i.____kernel_sin$lsc) refers to poly.o(i.__kernel_poly) for __kernel_poly
    sin_i_x.o(i.____kernel_sin$lsc) refers to dscalb.o(.text) for __ARM_scalbn
    sin_i_x.o(i.____kernel_sin$lsc) refers to dadd.o(.text) for __aeabi_dsub
    sin_i_x.o(i.____kernel_sin$lsc) refers to sin_i_x.o(.constdata) for .constdata
    sin_i_x.o(.constdata) refers (Special) to iusefp.o(.text) for __I$use$fp
    tan_i.o(i.__kernel_tan) refers (Special) to iusefp.o(.text) for __I$use$fp
    tan_i.o(i.__kernel_tan) refers to dfixi.o(.text) for __aeabi_d2iz
    tan_i.o(i.__kernel_tan) refers to dadd.o(.text) for __aeabi_drsub
    tan_i.o(i.__kernel_tan) refers to dmul.o(.text) for __aeabi_dmul
    tan_i.o(i.__kernel_tan) refers to poly.o(i.__kernel_poly) for __kernel_poly
    tan_i.o(i.__kernel_tan) refers to dflti.o(.text) for __aeabi_i2d
    tan_i.o(i.__kernel_tan) refers to ddiv.o(.text) for __aeabi_ddiv
    tan_i.o(i.__kernel_tan) refers to dscalb.o(.text) for __ARM_scalbn
    tan_i.o(i.__kernel_tan) refers to fpclassify.o(i.__ARM_fpclassify) for __ARM_fpclassify
    tan_i.o(i.__kernel_tan) refers to dunder.o(i.__mathlib_dbl_underflow) for __mathlib_dbl_underflow
    tan_i.o(i.__kernel_tan) refers to tan_i.o(.constdata) for .constdata
    tan_i.o(.constdata) refers (Special) to iusefp.o(.text) for __I$use$fp
    tan_i_x.o(i.____kernel_tan$lsc) refers (Special) to iusefp.o(.text) for __I$use$fp
    tan_i_x.o(i.____kernel_tan$lsc) refers to dfixi.o(.text) for __aeabi_d2iz
    tan_i_x.o(i.____kernel_tan$lsc) refers to dadd.o(.text) for __aeabi_drsub
    tan_i_x.o(i.____kernel_tan$lsc) refers to dmul.o(.text) for __aeabi_dmul
    tan_i_x.o(i.____kernel_tan$lsc) refers to poly.o(i.__kernel_poly) for __kernel_poly
    tan_i_x.o(i.____kernel_tan$lsc) refers to dflti.o(.text) for __aeabi_i2d
    tan_i_x.o(i.____kernel_tan$lsc) refers to ddiv.o(.text) for __aeabi_ddiv
    tan_i_x.o(i.____kernel_tan$lsc) refers to dscalb.o(.text) for __ARM_scalbn
    tan_i_x.o(i.____kernel_tan$lsc) refers to tan_i_x.o(.constdata) for .constdata
    tan_i_x.o(.constdata) refers (Special) to iusefp.o(.text) for __I$use$fp
    entry2.o(.ARM.Collect$$$$00000001) refers to entry2.o(.ARM.Collect$$$$00002712) for __lit__00000000
    entry2.o(.ARM.Collect$$$$00002712) refers to startup_stm32f10x_hd.o(STACK) for __initial_sp
    entry2.o(__vectab_stack_and_reset_area) refers to startup_stm32f10x_hd.o(STACK) for __initial_sp
    entry2.o(__vectab_stack_and_reset_area) refers to entry.o(.ARM.Collect$$$$00000000) for __main
    entry5.o(.ARM.Collect$$$$00000004) refers to init.o(.text) for __scatterload
    entry9a.o(.ARM.Collect$$$$0000000B) refers to main.o(i.main) for main
    entry9b.o(.ARM.Collect$$$$0000000C) refers to main.o(i.main) for main
    uldiv.o(.text) refers to llushr.o(.text) for __aeabi_llsr
    uldiv.o(.text) refers to llshl.o(.text) for __aeabi_llsl
    errno.o(i.__aeabi_errno_addr) refers to errno.o(.data) for .data
    errno.o(i.__read_errno) refers to errno.o(.data) for .data
    errno.o(i.__set_errno) refers to errno.o(.data) for .data
    _strtoul.o(.text) refers to _chval.o(.text) for _chval
    _strtoul.o(.text) refers to errno.o(i.__aeabi_errno_addr) for __aeabi_errno_addr
    strtod.o(.text) refers to scanf_fp.o(.text) for _scanf_real
    strtod.o(.text) refers to _sgetc.o(.text) for _sgetc
    strtod.o(.text) refers to isspace_o.o(.text) for isspace
    depilogue.o(.text) refers to llshl.o(.text) for __aeabi_llsl
    depilogue.o(.text) refers to llushr.o(.text) for __aeabi_llsr
    dsqrt.o(.text) refers to llushr.o(.text) for __aeabi_llsr
    dsqrt.o(.text) refers to depilogue.o(.text) for _double_round
    dfixul.o(.text) refers to llushr.o(.text) for __aeabi_llsr
    dfixul.o(.text) refers to llshl.o(.text) for __aeabi_llsl
    init.o(.text) refers to entry5.o(.ARM.Collect$$$$00000004) for __main_after_scatterload
    isspace_c.o(.text) refers to ctype_c.o(.text) for __ctype_lookup
    scanf_fp.o(.text) refers (Special) to iusefp.o(.text) for __I$use$fp
    scanf_fp.o(.text) refers to dfltul.o(.text) for __aeabi_ul2d
    scanf_fp.o(.text) refers to dmul.o(.text) for __aeabi_dmul
    scanf_fp.o(.text) refers to ddiv.o(.text) for __aeabi_ddiv
    scanf_fp.o(.text) refers to scanf_fp.o(i._is_digit) for _is_digit
    scanf_fp.o(.text) refers to d2f.o(.text) for __aeabi_d2f
    ctype_c.o(.text) refers to ctype_c.o(.constdata) for .constdata
    dfltul.o(.text) refers to depilogue.o(.text) for _double_epilogue
    scanf_fp.o(i._is_digit) refers (Special) to iusefp.o(.text) for __I$use$fp


==============================================================================

Removing Unused input sections from the image.

    Removing core_cm3.o(.emb_text), (32 bytes).
    Removing system_stm32f10x.o(i.SystemCoreClockUpdate), (124 bytes).
    Removing misc.o(i.NVIC_SetVectorTable), (20 bytes).
    Removing misc.o(i.NVIC_SystemLPConfig), (28 bytes).
    Removing misc.o(i.SysTick_CLKSourceConfig), (28 bytes).
    Removing stm32f10x_dma.o(i.DMA_ClearITPendingBit), (24 bytes).
    Removing stm32f10x_dma.o(i.DMA_GetCurrDataCounter), (6 bytes).
    Removing stm32f10x_dma.o(i.DMA_GetFlagStatus), (36 bytes).
    Removing stm32f10x_dma.o(i.DMA_StructInit), (26 bytes).
    Removing stm32f10x_exti.o(i.EXTI_ClearFlag), (12 bytes).
    Removing stm32f10x_exti.o(i.EXTI_DeInit), (36 bytes).
    Removing stm32f10x_exti.o(i.EXTI_GenerateSWInterrupt), (16 bytes).
    Removing stm32f10x_exti.o(i.EXTI_GetFlagStatus), (20 bytes).
    Removing stm32f10x_exti.o(i.EXTI_StructInit), (14 bytes).
    Removing stm32f10x_gpio.o(i.GPIO_AFIODeInit), (22 bytes).
    Removing stm32f10x_gpio.o(i.GPIO_DeInit), (216 bytes).
    Removing stm32f10x_gpio.o(i.GPIO_ETH_MediaInterfaceConfig), (12 bytes).
    Removing stm32f10x_gpio.o(i.GPIO_EventOutputCmd), (12 bytes).
    Removing stm32f10x_gpio.o(i.GPIO_EventOutputConfig), (28 bytes).
    Removing stm32f10x_gpio.o(i.GPIO_PinLockConfig), (16 bytes).
    Removing stm32f10x_gpio.o(i.GPIO_PinRemapConfig), (92 bytes).
    Removing stm32f10x_gpio.o(i.GPIO_ReadInputData), (6 bytes).
    Removing stm32f10x_gpio.o(i.GPIO_ReadOutputData), (6 bytes).
    Removing stm32f10x_gpio.o(i.GPIO_ReadOutputDataBit), (14 bytes).
    Removing stm32f10x_gpio.o(i.GPIO_StructInit), (16 bytes).
    Removing stm32f10x_gpio.o(i.GPIO_Write), (4 bytes).
    Removing stm32f10x_gpio.o(i.GPIO_WriteBit), (12 bytes).
    Removing stm32f10x_i2c.o(i.I2C_ARPCmd), (24 bytes).
    Removing stm32f10x_i2c.o(i.I2C_AcknowledgeConfig), (24 bytes).
    Removing stm32f10x_i2c.o(i.I2C_CalculatePEC), (24 bytes).
    Removing stm32f10x_i2c.o(i.I2C_ClearFlag), (6 bytes).
    Removing stm32f10x_i2c.o(i.I2C_ClearITPendingBit), (6 bytes).
    Removing stm32f10x_i2c.o(i.I2C_DMACmd), (24 bytes).
    Removing stm32f10x_i2c.o(i.I2C_DMALastTransferCmd), (24 bytes).
    Removing stm32f10x_i2c.o(i.I2C_DeInit), (56 bytes).
    Removing stm32f10x_i2c.o(i.I2C_DualAddressCmd), (24 bytes).
    Removing stm32f10x_i2c.o(i.I2C_FastModeDutyCycleConfig), (26 bytes).
    Removing stm32f10x_i2c.o(i.I2C_GeneralCallCmd), (24 bytes).
    Removing stm32f10x_i2c.o(i.I2C_GetITStatus), (34 bytes).
    Removing stm32f10x_i2c.o(i.I2C_GetLastEvent), (14 bytes).
    Removing stm32f10x_i2c.o(i.I2C_GetPEC), (6 bytes).
    Removing stm32f10x_i2c.o(i.I2C_ITConfig), (20 bytes).
    Removing stm32f10x_i2c.o(i.I2C_NACKPositionConfig), (26 bytes).
    Removing stm32f10x_i2c.o(i.I2C_OwnAddress2Config), (16 bytes).
    Removing stm32f10x_i2c.o(i.I2C_PECPositionConfig), (26 bytes).
    Removing stm32f10x_i2c.o(i.I2C_ReadRegister), (16 bytes).
    Removing stm32f10x_i2c.o(i.I2C_ReceiveData), (6 bytes).
    Removing stm32f10x_i2c.o(i.I2C_SMBusAlertConfig), (26 bytes).
    Removing stm32f10x_i2c.o(i.I2C_SoftwareResetCmd), (24 bytes).
    Removing stm32f10x_i2c.o(i.I2C_StretchClockCmd), (24 bytes).
    Removing stm32f10x_i2c.o(i.I2C_StructInit), (28 bytes).
    Removing stm32f10x_i2c.o(i.I2C_TransmitPEC), (24 bytes).
    Removing stm32f10x_rcc.o(i.RCC_ADCCLKConfig), (20 bytes).
    Removing stm32f10x_rcc.o(i.RCC_APB1PeriphResetCmd), (28 bytes).
    Removing stm32f10x_rcc.o(i.RCC_APB2PeriphResetCmd), (28 bytes).
    Removing stm32f10x_rcc.o(i.RCC_AdjustHSICalibrationValue), (20 bytes).
    Removing stm32f10x_rcc.o(i.RCC_BackupResetCmd), (12 bytes).
    Removing stm32f10x_rcc.o(i.RCC_ClearFlag), (16 bytes).
    Removing stm32f10x_rcc.o(i.RCC_ClearITPendingBit), (12 bytes).
    Removing stm32f10x_rcc.o(i.RCC_ClockSecuritySystemCmd), (12 bytes).
    Removing stm32f10x_rcc.o(i.RCC_DeInit), (64 bytes).
    Removing stm32f10x_rcc.o(i.RCC_GetFlagStatus), (48 bytes).
    Removing stm32f10x_rcc.o(i.RCC_GetITStatus), (20 bytes).
    Removing stm32f10x_rcc.o(i.RCC_GetSYSCLKSource), (16 bytes).
    Removing stm32f10x_rcc.o(i.RCC_HCLKConfig), (20 bytes).
    Removing stm32f10x_rcc.o(i.RCC_HSEConfig), (56 bytes).
    Removing stm32f10x_rcc.o(i.RCC_HSICmd), (12 bytes).
    Removing stm32f10x_rcc.o(i.RCC_ITConfig), (28 bytes).
    Removing stm32f10x_rcc.o(i.RCC_LSEConfig), (40 bytes).
    Removing stm32f10x_rcc.o(i.RCC_LSICmd), (12 bytes).
    Removing stm32f10x_rcc.o(i.RCC_MCOConfig), (12 bytes).
    Removing stm32f10x_rcc.o(i.RCC_PCLK1Config), (20 bytes).
    Removing stm32f10x_rcc.o(i.RCC_PCLK2Config), (20 bytes).
    Removing stm32f10x_rcc.o(i.RCC_PLLCmd), (12 bytes).
    Removing stm32f10x_rcc.o(i.RCC_PLLConfig), (20 bytes).
    Removing stm32f10x_rcc.o(i.RCC_RTCCLKCmd), (12 bytes).
    Removing stm32f10x_rcc.o(i.RCC_RTCCLKConfig), (16 bytes).
    Removing stm32f10x_rcc.o(i.RCC_SYSCLKConfig), (20 bytes).
    Removing stm32f10x_rcc.o(i.RCC_USBCLKConfig), (12 bytes).
    Removing stm32f10x_rcc.o(i.RCC_WaitForHSEStartUp), (48 bytes).
    Removing stm32f10x_tim.o(i.TI1_Config), (116 bytes).
    Removing stm32f10x_tim.o(i.TI2_Config), (124 bytes).
    Removing stm32f10x_tim.o(i.TI3_Config), (120 bytes).
    Removing stm32f10x_tim.o(i.TI4_Config), (124 bytes).
    Removing stm32f10x_tim.o(i.TIM_ARRPreloadConfig), (24 bytes).
    Removing stm32f10x_tim.o(i.TIM_BDTRConfig), (34 bytes).
    Removing stm32f10x_tim.o(i.TIM_BDTRStructInit), (18 bytes).
    Removing stm32f10x_tim.o(i.TIM_CCPreloadControl), (24 bytes).
    Removing stm32f10x_tim.o(i.TIM_CCxCmd), (22 bytes).
    Removing stm32f10x_tim.o(i.TIM_CCxNCmd), (22 bytes).
    Removing stm32f10x_tim.o(i.TIM_ClearFlag), (6 bytes).
    Removing stm32f10x_tim.o(i.TIM_ClearOC1Ref), (12 bytes).
    Removing stm32f10x_tim.o(i.TIM_ClearOC2Ref), (20 bytes).
    Removing stm32f10x_tim.o(i.TIM_ClearOC3Ref), (12 bytes).
    Removing stm32f10x_tim.o(i.TIM_ClearOC4Ref), (20 bytes).
    Removing stm32f10x_tim.o(i.TIM_CounterModeConfig), (12 bytes).
    Removing stm32f10x_tim.o(i.TIM_CtrlPWMOutputs), (28 bytes).
    Removing stm32f10x_tim.o(i.TIM_DMACmd), (20 bytes).
    Removing stm32f10x_tim.o(i.TIM_DMAConfig), (8 bytes).
    Removing stm32f10x_tim.o(i.TIM_DeInit), (528 bytes).
    Removing stm32f10x_tim.o(i.TIM_ETRClockMode1Config), (32 bytes).
    Removing stm32f10x_tim.o(i.TIM_ETRClockMode2Config), (20 bytes).
    Removing stm32f10x_tim.o(i.TIM_ETRConfig), (24 bytes).
    Removing stm32f10x_tim.o(i.TIM_EncoderInterfaceConfig), (50 bytes).
    Removing stm32f10x_tim.o(i.TIM_ForcedOC1Config), (12 bytes).
    Removing stm32f10x_tim.o(i.TIM_ForcedOC2Config), (20 bytes).
    Removing stm32f10x_tim.o(i.TIM_ForcedOC3Config), (12 bytes).
    Removing stm32f10x_tim.o(i.TIM_ForcedOC4Config), (20 bytes).
    Removing stm32f10x_tim.o(i.TIM_GenerateEvent), (4 bytes).
    Removing stm32f10x_tim.o(i.TIM_GetCapture1), (4 bytes).
    Removing stm32f10x_tim.o(i.TIM_GetCapture2), (4 bytes).
    Removing stm32f10x_tim.o(i.TIM_GetCapture3), (4 bytes).
    Removing stm32f10x_tim.o(i.TIM_GetCapture4), (6 bytes).
    Removing stm32f10x_tim.o(i.TIM_GetCounter), (4 bytes).
    Removing stm32f10x_tim.o(i.TIM_GetFlagStatus), (14 bytes).
    Removing stm32f10x_tim.o(i.TIM_GetPrescaler), (4 bytes).
    Removing stm32f10x_tim.o(i.TIM_ICInit), (140 bytes).
    Removing stm32f10x_tim.o(i.TIM_ICStructInit), (16 bytes).
    Removing stm32f10x_tim.o(i.TIM_ITRxExternalClockConfig), (20 bytes).
    Removing stm32f10x_tim.o(i.TIM_InternalClockConfig), (10 bytes).
    Removing stm32f10x_tim.o(i.TIM_OC1FastConfig), (12 bytes).
    Removing stm32f10x_tim.o(i.TIM_OC1Init), (136 bytes).
    Removing stm32f10x_tim.o(i.TIM_OC1NPolarityConfig), (12 bytes).
    Removing stm32f10x_tim.o(i.TIM_OC1PolarityConfig), (12 bytes).
    Removing stm32f10x_tim.o(i.TIM_OC1PreloadConfig), (12 bytes).
    Removing stm32f10x_tim.o(i.TIM_OC2FastConfig), (20 bytes).
    Removing stm32f10x_tim.o(i.TIM_OC2Init), (136 bytes).
    Removing stm32f10x_tim.o(i.TIM_OC2NPolarityConfig), (20 bytes).
    Removing stm32f10x_tim.o(i.TIM_OC2PolarityConfig), (20 bytes).
    Removing stm32f10x_tim.o(i.TIM_OC2PreloadConfig), (20 bytes).
    Removing stm32f10x_tim.o(i.TIM_OC3FastConfig), (12 bytes).
    Removing stm32f10x_tim.o(i.TIM_OC3Init), (132 bytes).
    Removing stm32f10x_tim.o(i.TIM_OC3NPolarityConfig), (20 bytes).
    Removing stm32f10x_tim.o(i.TIM_OC3PolarityConfig), (20 bytes).
    Removing stm32f10x_tim.o(i.TIM_OC3PreloadConfig), (12 bytes).
    Removing stm32f10x_tim.o(i.TIM_OC4FastConfig), (20 bytes).
    Removing stm32f10x_tim.o(i.TIM_OC4Init), (104 bytes).
    Removing stm32f10x_tim.o(i.TIM_OC4PolarityConfig), (20 bytes).
    Removing stm32f10x_tim.o(i.TIM_OC4PreloadConfig), (20 bytes).
    Removing stm32f10x_tim.o(i.TIM_OCStructInit), (20 bytes).
    Removing stm32f10x_tim.o(i.TIM_PWMIConfig), (110 bytes).
    Removing stm32f10x_tim.o(i.TIM_PrescalerConfig), (6 bytes).
    Removing stm32f10x_tim.o(i.TIM_SelectCCDMA), (24 bytes).
    Removing stm32f10x_tim.o(i.TIM_SelectCOM), (24 bytes).
    Removing stm32f10x_tim.o(i.TIM_SelectHallSensor), (24 bytes).
    Removing stm32f10x_tim.o(i.TIM_SelectInputTrigger), (12 bytes).
    Removing stm32f10x_tim.o(i.TIM_SelectMasterSlaveMode), (16 bytes).
    Removing stm32f10x_tim.o(i.TIM_SelectOCxM), (76 bytes).
    Removing stm32f10x_tim.o(i.TIM_SelectOnePulseMode), (16 bytes).
    Removing stm32f10x_tim.o(i.TIM_SelectOutputTrigger), (16 bytes).
    Removing stm32f10x_tim.o(i.TIM_SelectSlaveMode), (16 bytes).
    Removing stm32f10x_tim.o(i.TIM_SetAutoreload), (4 bytes).
    Removing stm32f10x_tim.o(i.TIM_SetClockDivision), (16 bytes).
    Removing stm32f10x_tim.o(i.TIM_SetCompare1), (4 bytes).
    Removing stm32f10x_tim.o(i.TIM_SetCompare2), (4 bytes).
    Removing stm32f10x_tim.o(i.TIM_SetCompare3), (4 bytes).
    Removing stm32f10x_tim.o(i.TIM_SetCompare4), (6 bytes).
    Removing stm32f10x_tim.o(i.TIM_SetIC1Prescaler), (16 bytes).
    Removing stm32f10x_tim.o(i.TIM_SetIC2Prescaler), (24 bytes).
    Removing stm32f10x_tim.o(i.TIM_SetIC3Prescaler), (16 bytes).
    Removing stm32f10x_tim.o(i.TIM_SetIC4Prescaler), (24 bytes).
    Removing stm32f10x_tim.o(i.TIM_TIxExternalClockConfig), (48 bytes).
    Removing stm32f10x_tim.o(i.TIM_TimeBaseStructInit), (18 bytes).
    Removing stm32f10x_tim.o(i.TIM_UpdateDisableConfig), (24 bytes).
    Removing stm32f10x_tim.o(i.TIM_UpdateRequestConfig), (24 bytes).
    Removing stm32f10x_usart.o(i.USART_ClearFlag), (8 bytes).
    Removing stm32f10x_usart.o(i.USART_ClearITPendingBit), (16 bytes).
    Removing stm32f10x_usart.o(i.USART_ClockInit), (30 bytes).
    Removing stm32f10x_usart.o(i.USART_ClockStructInit), (12 bytes).
    Removing stm32f10x_usart.o(i.USART_DeInit), (164 bytes).
    Removing stm32f10x_usart.o(i.USART_HalfDuplexCmd), (24 bytes).
    Removing stm32f10x_usart.o(i.USART_IrDACmd), (24 bytes).
    Removing stm32f10x_usart.o(i.USART_IrDAConfig), (16 bytes).
    Removing stm32f10x_usart.o(i.USART_LINBreakDetectLengthConfig), (16 bytes).
    Removing stm32f10x_usart.o(i.USART_LINCmd), (24 bytes).
    Removing stm32f10x_usart.o(i.USART_OneBitMethodCmd), (24 bytes).
    Removing stm32f10x_usart.o(i.USART_OverSampling8Cmd), (24 bytes).
    Removing stm32f10x_usart.o(i.USART_ReceiverWakeUpCmd), (24 bytes).
    Removing stm32f10x_usart.o(i.USART_SendBreak), (10 bytes).
    Removing stm32f10x_usart.o(i.USART_SetAddress), (16 bytes).
    Removing stm32f10x_usart.o(i.USART_SetGuardTime), (16 bytes).
    Removing stm32f10x_usart.o(i.USART_SetPrescaler), (16 bytes).
    Removing stm32f10x_usart.o(i.USART_SmartCardCmd), (24 bytes).
    Removing stm32f10x_usart.o(i.USART_SmartCardNACKCmd), (24 bytes).
    Removing stm32f10x_usart.o(i.USART_StructInit), (22 bytes).
    Removing stm32f10x_usart.o(i.USART_WakeUpConfig), (16 bytes).
    Removing bsp_systick.o(i.SysTick_Delay_ms), (44 bytes).
    Removing bsp_systick.o(i.SysTick_Delay_us), (40 bytes).
    Removing bsp_ec20.o(.bss), (255 bytes).
    Removing bsp_tim.o(i.TIM4_SetARR), (36 bytes).
    Removing bsp_usart1.o(i.fgetc), (32 bytes).
    Removing bsp_usart2.o(i.Uart2_SendStr), (32 bytes).
    Removing bsp_usart2.o(.data), (1 bytes).
    Removing oled_i2c.o(i.OLED_CLS), (6 bytes).
    Removing oled_i2c.o(i.OLED_OFF), (24 bytes).
    Removing oled_i2c.o(i.OLED_ON), (24 bytes).
    Removing context.o(i.nmea_trace), (66 bytes).
    Removing generate.o(i.nmea_gen_GPGGA), (116 bytes).
    Removing generate.o(i.nmea_gen_GPGSA), (96 bytes).
    Removing generate.o(i.nmea_gen_GPGSV), (96 bytes).
    Removing generate.o(i.nmea_gen_GPRMC), (116 bytes).
    Removing generate.o(i.nmea_gen_GPVTG), (104 bytes).
    Removing generate.o(i.nmea_generate), (228 bytes).
    Removing generate.o(i.nmea_gsv_npack), (30 bytes).
    Removing generate.o(i.nmea_info2GPGGA), (120 bytes).
    Removing generate.o(i.nmea_info2GPGSA), (82 bytes).
    Removing generate.o(i.nmea_info2GPGSV), (106 bytes).
    Removing generate.o(i.nmea_info2GPRMC), (172 bytes).
    Removing generate.o(i.nmea_info2GPVTG), (64 bytes).
    Removing generate.o(.conststring), (380 bytes).
    Removing generator.o(i.__nmea_create_generator), (284 bytes).
    Removing generator.o(i.nmea_create_generator), (26 bytes).
    Removing generator.o(i.nmea_destroy_generator), (4 bytes).
    Removing generator.o(i.nmea_gen_add), (14 bytes).
    Removing generator.o(i.nmea_gen_destroy), (36 bytes).
    Removing generator.o(i.nmea_gen_init), (80 bytes).
    Removing generator.o(i.nmea_gen_loop), (34 bytes).
    Removing generator.o(i.nmea_gen_reset), (16 bytes).
    Removing generator.o(i.nmea_generate_from), (44 bytes).
    Removing generator.o(i.nmea_igen_noise_init), (4 bytes).
    Removing generator.o(i.nmea_igen_noise_loop), (412 bytes).
    Removing generator.o(i.nmea_igen_noise_reset), (4 bytes).
    Removing generator.o(i.nmea_igen_pos_rmove_destroy), (4 bytes).
    Removing generator.o(i.nmea_igen_pos_rmove_init), (32 bytes).
    Removing generator.o(i.nmea_igen_pos_rmove_loop), (248 bytes).
    Removing generator.o(i.nmea_igen_rotate_init), (16 bytes).
    Removing generator.o(i.nmea_igen_rotate_loop), (164 bytes).
    Removing generator.o(i.nmea_igen_rotate_reset), (116 bytes).
    Removing generator.o(i.nmea_igen_static_init), (16 bytes).
    Removing generator.o(i.nmea_igen_static_loop), (14 bytes).
    Removing generator.o(i.nmea_igen_static_reset), (74 bytes).
    Removing generator.o(i.nmea_random), (68 bytes).
    Removing generator.o(.data), (8 bytes).
    Removing gmath.o(i.__ARM_isnan), (36 bytes).
    Removing gmath.o(i.nmea_calc_pdop), (56 bytes).
    Removing gmath.o(i.nmea_degree2ndeg), (56 bytes).
    Removing gmath.o(i.nmea_degree2radian), (16 bytes).
    Removing gmath.o(i.nmea_distance), (124 bytes).
    Removing gmath.o(i.nmea_distance_ellipsoid), (1564 bytes).
    Removing gmath.o(i.nmea_dop2meters), (12 bytes).
    Removing gmath.o(i.nmea_info2pos), (32 bytes).
    Removing gmath.o(i.nmea_meters2dop), (12 bytes).
    Removing gmath.o(i.nmea_move_horz), (328 bytes).
    Removing gmath.o(i.nmea_move_horz_ellipsoid), (1524 bytes).
    Removing gmath.o(i.nmea_ndeg2radian), (14 bytes).
    Removing gmath.o(i.nmea_pos2info), (32 bytes).
    Removing gmath.o(i.nmea_radian2degree), (16 bytes).
    Removing gmath.o(i.nmea_radian2ndeg), (14 bytes).
    Removing parser.o(i.nmea_parser_destroy), (28 bytes).
    Removing parser.o(i.nmea_parser_drop), (42 bytes).
    Removing parser.o(i.nmea_parser_peek), (18 bytes).
    Removing parser.o(i.nmea_parser_queue_clear), (22 bytes).
    Removing parser.o(i.nmea_parser_top), (14 bytes).
    Removing sentence.o(i.nmea_zero_BDGSA), (22 bytes).
    Removing sentence.o(i.nmea_zero_GNGGA), (40 bytes).
    Removing sentence.o(i.nmea_zero_GNGLL), (36 bytes).
    Removing sentence.o(i.nmea_zero_GNRMC), (38 bytes).
    Removing sentence.o(i.nmea_zero_GNVTG), (34 bytes).
    Removing sentence.o(i.nmea_zero_GNZDA), (22 bytes).
    Removing sentence.o(i.nmea_zero_GPGGA), (40 bytes).
    Removing sentence.o(i.nmea_zero_GPGSA), (22 bytes).
    Removing sentence.o(i.nmea_zero_GPGSV), (6 bytes).
    Removing sentence.o(i.nmea_zero_GPRMC), (38 bytes).
    Removing sentence.o(i.nmea_zero_GPTXT), (10 bytes).
    Removing sentence.o(i.nmea_zero_GPVTG), (34 bytes).
    Removing tok.o(i.nmea_calc_crc), (22 bytes).
    Removing tok.o(i.nmea_printf), (96 bytes).
    Removing dscalb.o(.text), (46 bytes).
    Removing cdcmple.o(.text), (48 bytes).
    Removing dsqrt.o(.text), (162 bytes).

270 unused section(s) (total 14366 bytes) removed from the image.

==============================================================================

Image Symbol Table

    Local Symbols

    Symbol Name                              Value     Ov Type        Size  Object(Section)

    ../clib/../cmprslib/zerorunl2.c          0x00000000   Number         0  __dczerorl2.o ABSOLUTE
    ../clib/microlib/ctype/ctype.c           0x00000000   Number         0  isxdigit_o.o ABSOLUTE
    ../clib/microlib/ctype/ctype.c           0x00000000   Number         0  isalnum_o.o ABSOLUTE
    ../clib/microlib/ctype/ctype.c           0x00000000   Number         0  iscntrl_o.o ABSOLUTE
    ../clib/microlib/ctype/ctype.c           0x00000000   Number         0  islower_o.o ABSOLUTE
    ../clib/microlib/ctype/ctype.c           0x00000000   Number         0  isupper_o.o ABSOLUTE
    ../clib/microlib/ctype/ctype.c           0x00000000   Number         0  isspace_o.o ABSOLUTE
    ../clib/microlib/ctype/ctype.c           0x00000000   Number         0  isdigit_o.o ABSOLUTE
    ../clib/microlib/ctype/ctype.c           0x00000000   Number         0  isspace_c.o ABSOLUTE
    ../clib/microlib/ctype/ctype.c           0x00000000   Number         0  isblank_o.o ABSOLUTE
    ../clib/microlib/ctype/ctype.c           0x00000000   Number         0  isalpha_o.o ABSOLUTE
    ../clib/microlib/ctype/ctype.c           0x00000000   Number         0  ctype_o.o ABSOLUTE
    ../clib/microlib/ctype/ctype.c           0x00000000   Number         0  ctype_c.o ABSOLUTE
    ../clib/microlib/ctype/ctype.c           0x00000000   Number         0  isprint_o.o ABSOLUTE
    ../clib/microlib/ctype/ctype.c           0x00000000   Number         0  ispunct_o.o ABSOLUTE
    ../clib/microlib/ctype/ctype.c           0x00000000   Number         0  isgraph_o.o ABSOLUTE
    ../clib/microlib/division.c              0x00000000   Number         0  uldiv.o ABSOLUTE
    ../clib/microlib/division.c              0x00000000   Number         0  uidiv.o ABSOLUTE
    ../clib/microlib/errno.c                 0x00000000   Number         0  errno.o ABSOLUTE
    ../clib/microlib/init/entry.s            0x00000000   Number         0  entry5.o ABSOLUTE
    ../clib/microlib/init/entry.s            0x00000000   Number         0  entry9a.o ABSOLUTE
    ../clib/microlib/init/entry.s            0x00000000   Number         0  entry8b.o ABSOLUTE
    ../clib/microlib/init/entry.s            0x00000000   Number         0  entry8a.o ABSOLUTE
    ../clib/microlib/init/entry.s            0x00000000   Number         0  entry9b.o ABSOLUTE
    ../clib/microlib/init/entry.s            0x00000000   Number         0  entry10b.o ABSOLUTE
    ../clib/microlib/init/entry.s            0x00000000   Number         0  entry.o ABSOLUTE
    ../clib/microlib/init/entry.s            0x00000000   Number         0  entry7b.o ABSOLUTE
    ../clib/microlib/init/entry.s            0x00000000   Number         0  entry7a.o ABSOLUTE
    ../clib/microlib/init/entry.s            0x00000000   Number         0  entry11a.o ABSOLUTE
    ../clib/microlib/init/entry.s            0x00000000   Number         0  entry2.o ABSOLUTE
    ../clib/microlib/init/entry.s            0x00000000   Number         0  entry11b.o ABSOLUTE
    ../clib/microlib/init/entry.s            0x00000000   Number         0  entry10a.o ABSOLUTE
    ../clib/microlib/longlong.c              0x00000000   Number         0  llshl.o ABSOLUTE
    ../clib/microlib/longlong.c              0x00000000   Number         0  llushr.o ABSOLUTE
    ../clib/microlib/longlong.c              0x00000000   Number         0  llsshr.o ABSOLUTE
    ../clib/microlib/malloc/malloc.c         0x00000000   Number         0  malloca.o ABSOLUTE
    ../clib/microlib/malloc/malloc.c         0x00000000   Number         0  mallocra.o ABSOLUTE
    ../clib/microlib/malloc/malloc.c         0x00000000   Number         0  mallocr.o ABSOLUTE
    ../clib/microlib/malloc/malloc.c         0x00000000   Number         0  malloc.o ABSOLUTE
    ../clib/microlib/malloc/mvars.c          0x00000000   Number         0  mvars.o ABSOLUTE
    ../clib/microlib/printf/printf.c         0x00000000   Number         0  printfa.o ABSOLUTE
    ../clib/microlib/printf/printf.c         0x00000000   Number         0  printf7.o ABSOLUTE
    ../clib/microlib/printf/printf.c         0x00000000   Number         0  printf8.o ABSOLUTE
    ../clib/microlib/printf/printf.c         0x00000000   Number         0  printf1.o ABSOLUTE
    ../clib/microlib/printf/printf.c         0x00000000   Number         0  printfb.o ABSOLUTE
    ../clib/microlib/printf/printf.c         0x00000000   Number         0  printf0.o ABSOLUTE
    ../clib/microlib/printf/printf.c         0x00000000   Number         0  printf2.o ABSOLUTE
    ../clib/microlib/printf/printf.c         0x00000000   Number         0  printf3.o ABSOLUTE
    ../clib/microlib/printf/printf.c         0x00000000   Number         0  printf4.o ABSOLUTE
    ../clib/microlib/printf/printf.c         0x00000000   Number         0  printf5.o ABSOLUTE
    ../clib/microlib/printf/printf.c         0x00000000   Number         0  printf6.o ABSOLUTE
    ../clib/microlib/printf/stubs.s          0x00000000   Number         0  stubs.o ABSOLUTE
    ../clib/microlib/stdio/streams.c         0x00000000   Number         0  stdout.o ABSOLUTE
    ../clib/microlib/stdlib/rand.c           0x00000000   Number         0  rand.o ABSOLUTE
    ../clib/microlib/string/memchr.c         0x00000000   Number         0  memchr.o ABSOLUTE
    ../clib/microlib/string/memcmp.c         0x00000000   Number         0  memcmp.o ABSOLUTE
    ../clib/microlib/string/memcpy.c         0x00000000   Number         0  memcpya.o ABSOLUTE
    ../clib/microlib/string/memcpy.c         0x00000000   Number         0  memcpyb.o ABSOLUTE
    ../clib/microlib/string/memset.c         0x00000000   Number         0  memseta.o ABSOLUTE
    ../clib/microlib/string/strlen.c         0x00000000   Number         0  strlen.o ABSOLUTE
    ../clib/microlib/string/strstr.c         0x00000000   Number         0  strstr.o ABSOLUTE
    ../clib/microlib/stubs.s                 0x00000000   Number         0  iusefp.o ABSOLUTE
    ../clib/scanf.c                          0x00000000   Number         0  strtol.o ABSOLUTE
    ../clib/scanf.c                          0x00000000   Number         0  _strtoul.o ABSOLUTE
    ../clib/scanf.c                          0x00000000   Number         0  strtod.o ABSOLUTE
    ../clib/scanf.c                          0x00000000   Number         0  _chval.o ABSOLUTE
    ../clib/scanf.c                          0x00000000   Number         0  scanf_fp.o ABSOLUTE
    ../clib/scanf.c                          0x00000000   Number         0  _sgetc.o ABSOLUTE
    ../fplib/microlib/d2f.c                  0x00000000   Number         0  d2f.o ABSOLUTE
    ../fplib/microlib/f2d.c                  0x00000000   Number         0  f2d.o ABSOLUTE
    ../fplib/microlib/fpadd.c                0x00000000   Number         0  fadd.o ABSOLUTE
    ../fplib/microlib/fpadd.c                0x00000000   Number         0  dadd.o ABSOLUTE
    ../fplib/microlib/fpdiv.c                0x00000000   Number         0  ddiv.o ABSOLUTE
    ../fplib/microlib/fpepilogue.c           0x00000000   Number         0  depilogue.o ABSOLUTE
    ../fplib/microlib/fpepilogue.c           0x00000000   Number         0  fepilogue.o ABSOLUTE
    ../fplib/microlib/fpfix.c                0x00000000   Number         0  ffixui.o ABSOLUTE
    ../fplib/microlib/fpfix.c                0x00000000   Number         0  dfixul.o ABSOLUTE
    ../fplib/microlib/fpfix.c                0x00000000   Number         0  dfixi.o ABSOLUTE
    ../fplib/microlib/fpflt.c                0x00000000   Number         0  dfltui.o ABSOLUTE
    ../fplib/microlib/fpflt.c                0x00000000   Number         0  dflti.o ABSOLUTE
    ../fplib/microlib/fpflt.c                0x00000000   Number         0  dfltul.o ABSOLUTE
    ../fplib/microlib/fpflt.c                0x00000000   Number         0  ffltui.o ABSOLUTE
    ../fplib/microlib/fpmul.c                0x00000000   Number         0  dmul.o ABSOLUTE
    ../fplib/microlib/fpscalb.c              0x00000000   Number         0  dscalb.o ABSOLUTE
    ../fplib/microlib/fpsqrt.c               0x00000000   Number         0  dsqrt.o ABSOLUTE
    ../mathlib/acos.c                        0x00000000   Number         0  acos.o ABSOLUTE
    ../mathlib/acos.c                        0x00000000   Number         0  acos_x.o ABSOLUTE
    ../mathlib/asin.c                        0x00000000   Number         0  asin_x.o ABSOLUTE
    ../mathlib/asin.c                        0x00000000   Number         0  asin.o ABSOLUTE
    ../mathlib/atan.c                        0x00000000   Number         0  atan_x.o ABSOLUTE
    ../mathlib/atan.c                        0x00000000   Number         0  atan.o ABSOLUTE
    ../mathlib/atan2.c                       0x00000000   Number         0  atan2.o ABSOLUTE
    ../mathlib/atan2.c                       0x00000000   Number         0  atan2_x.o ABSOLUTE
    ../mathlib/ceil.c                        0x00000000   Number         0  ceil.o ABSOLUTE
    ../mathlib/cos.c                         0x00000000   Number         0  cos_x.o ABSOLUTE
    ../mathlib/cos.c                         0x00000000   Number         0  cos.o ABSOLUTE
    ../mathlib/cos_i.c                       0x00000000   Number         0  cos_i.o ABSOLUTE
    ../mathlib/dunder.c                      0x00000000   Number         0  dunder.o ABSOLUTE
    ../mathlib/fpclassify.c                  0x00000000   Number         0  fpclassify.o ABSOLUTE
    ../mathlib/modf.c                        0x00000000   Number         0  modf.o ABSOLUTE
    ../mathlib/poly.c                        0x00000000   Number         0  poly.o ABSOLUTE
    ../mathlib/pow.c                         0x00000000   Number         0  pow.o ABSOLUTE
    ../mathlib/pow.c                         0x00000000   Number         0  pow_x.o ABSOLUTE
    ../mathlib/qnan.c                        0x00000000   Number         0  qnan.o ABSOLUTE
    ../mathlib/rred.c                        0x00000000   Number         0  rred.o ABSOLUTE
    ../mathlib/sin.c                         0x00000000   Number         0  sin_x.o ABSOLUTE
    ../mathlib/sin.c                         0x00000000   Number         0  sin.o ABSOLUTE
    ../mathlib/sin_i.c                       0x00000000   Number         0  sin_i_x.o ABSOLUTE
    ../mathlib/sin_i.c                       0x00000000   Number         0  sin_i.o ABSOLUTE
    ../mathlib/sqrt.c                        0x00000000   Number         0  sqrt.o ABSOLUTE
    ../mathlib/sqrt.c                        0x00000000   Number         0  sqrt_x.o ABSOLUTE
    ../mathlib/strtod.c                      0x00000000   Number         0  strtod.o ABSOLUTE
    ../mathlib/tan.c                         0x00000000   Number         0  tan.o ABSOLUTE
    ../mathlib/tan.c                         0x00000000   Number         0  tan_x.o ABSOLUTE
    ../mathlib/tan_i.c                       0x00000000   Number         0  tan_i_x.o ABSOLUTE
    ../mathlib/tan_i.c                       0x00000000   Number         0  tan_i.o ABSOLUTE
    ..\..\Libraries\CMSIS\core_cm3.c         0x00000000   Number         0  core_cm3.o ABSOLUTE
    ..\..\Libraries\CMSIS\startup\startup_stm32f10x_hd.s 0x00000000   Number         0  startup_stm32f10x_hd.o ABSOLUTE
    ..\..\Libraries\CMSIS\system_stm32f10x.c 0x00000000   Number         0  system_stm32f10x.o ABSOLUTE
    ..\..\Libraries\FWlib\src\misc.c         0x00000000   Number         0  misc.o ABSOLUTE
    ..\..\Libraries\FWlib\src\stm32f10x_dma.c 0x00000000   Number         0  stm32f10x_dma.o ABSOLUTE
    ..\..\Libraries\FWlib\src\stm32f10x_exti.c 0x00000000   Number         0  stm32f10x_exti.o ABSOLUTE
    ..\..\Libraries\FWlib\src\stm32f10x_gpio.c 0x00000000   Number         0  stm32f10x_gpio.o ABSOLUTE
    ..\..\Libraries\FWlib\src\stm32f10x_i2c.c 0x00000000   Number         0  stm32f10x_i2c.o ABSOLUTE
    ..\..\Libraries\FWlib\src\stm32f10x_rcc.c 0x00000000   Number         0  stm32f10x_rcc.o ABSOLUTE
    ..\..\Libraries\FWlib\src\stm32f10x_tim.c 0x00000000   Number         0  stm32f10x_tim.o ABSOLUTE
    ..\..\Libraries\FWlib\src\stm32f10x_usart.c 0x00000000   Number         0  stm32f10x_usart.o ABSOLUTE
    ..\..\User\Bsp\gps\gps_config.c          0x00000000   Number         0  gps_config.o ABSOLUTE
    ..\..\User\Infrared_beam\bsp_exti.c      0x00000000   Number         0  bsp_exti.o ABSOLUTE
    ..\..\User\dam\bsp_dma.c                 0x00000000   Number         0  bsp_dma.o ABSOLUTE
    ..\..\User\dht11\bsp_dht11.c             0x00000000   Number         0  bsp_dht11.o ABSOLUTE
    ..\..\User\dwt_delay\core_delay.c        0x00000000   Number         0  core_delay.o ABSOLUTE
    ..\..\User\ec20\bsp_ec20.c               0x00000000   Number         0  bsp_ec20.o ABSOLUTE
    ..\..\User\led\bsp_led.c                 0x00000000   Number         0  bsp_led.o ABSOLUTE
    ..\..\User\main.c                        0x00000000   Number         0  main.o ABSOLUTE
    ..\..\User\mlx90614\mlx90614.c           0x00000000   Number         0  mlx90614.o ABSOLUTE
    ..\..\User\nema_decode_test.c            0x00000000   Number         0  nema_decode_test.o ABSOLUTE
    ..\..\User\nmea_decode\src\context.c     0x00000000   Number         0  context.o ABSOLUTE
    ..\..\User\nmea_decode\src\generate.c    0x00000000   Number         0  generate.o ABSOLUTE
    ..\..\User\nmea_decode\src\generator.c   0x00000000   Number         0  generator.o ABSOLUTE
    ..\..\User\nmea_decode\src\gmath.c       0x00000000   Number         0  gmath.o ABSOLUTE
    ..\..\User\nmea_decode\src\info.c        0x00000000   Number         0  info.o ABSOLUTE
    ..\..\User\nmea_decode\src\parse.c       0x00000000   Number         0  parse.o ABSOLUTE
    ..\..\User\nmea_decode\src\parser.c      0x00000000   Number         0  parser.o ABSOLUTE
    ..\..\User\nmea_decode\src\sentence.c    0x00000000   Number         0  sentence.o ABSOLUTE
    ..\..\User\nmea_decode\src\time.c        0x00000000   Number         0  time.o ABSOLUTE
    ..\..\User\nmea_decode\src\tok.c         0x00000000   Number         0  tok.o ABSOLUTE
    ..\..\User\oled\OLED_I2C.c               0x00000000   Number         0  oled_i2c.o ABSOLUTE
    ..\..\User\stm32f10x_it.c                0x00000000   Number         0  stm32f10x_it.o ABSOLUTE
    ..\..\User\systick\bsp_systick.c         0x00000000   Number         0  bsp_systick.o ABSOLUTE
    ..\..\User\tim\bsp_tim.c                 0x00000000   Number         0  bsp_tim.o ABSOLUTE
    ..\..\User\usart1\bsp_usart1.c           0x00000000   Number         0  bsp_usart1.o ABSOLUTE
    ..\..\User\usart2\bsp_usart2.c           0x00000000   Number         0  bsp_usart2.o ABSOLUTE
    ..\\..\\Libraries\\CMSIS\\core_cm3.c     0x00000000   Number         0  core_cm3.o ABSOLUTE
    cdcmple.s                                0x00000000   Number         0  cdcmple.o ABSOLUTE
    cdrcmple.s                               0x00000000   Number         0  cdrcmple.o ABSOLUTE
    dc.s                                     0x00000000   Number         0  dc.o ABSOLUTE
    handlers.s                               0x00000000   Number         0  handlers.o ABSOLUTE
    init.s                                   0x00000000   Number         0  init.o ABSOLUTE
    RESET                                    0x08000000   Section      304  startup_stm32f10x_hd.o(RESET)
    .ARM.Collect$$$$00000000                 0x08000130   Section        0  entry.o(.ARM.Collect$$$$00000000)
    .ARM.Collect$$$$00000001                 0x08000130   Section        4  entry2.o(.ARM.Collect$$$$00000001)
    .ARM.Collect$$$$00000004                 0x08000134   Section        4  entry5.o(.ARM.Collect$$$$00000004)
    .ARM.Collect$$$$00000008                 0x08000138   Section        0  entry7b.o(.ARM.Collect$$$$00000008)
    .ARM.Collect$$$$0000000A                 0x08000138   Section        0  entry8b.o(.ARM.Collect$$$$0000000A)
    .ARM.Collect$$$$0000000B                 0x08000138   Section        8  entry9a.o(.ARM.Collect$$$$0000000B)
    .ARM.Collect$$$$0000000D                 0x08000140   Section        0  entry10a.o(.ARM.Collect$$$$0000000D)
    .ARM.Collect$$$$0000000F                 0x08000140   Section        0  entry11a.o(.ARM.Collect$$$$0000000F)
    .ARM.Collect$$$$00002712                 0x08000140   Section        4  entry2.o(.ARM.Collect$$$$00002712)
    __lit__00000000                          0x08000140   Data           4  entry2.o(.ARM.Collect$$$$00002712)
    .text                                    0x08000144   Section       36  startup_stm32f10x_hd.o(.text)
    .text                                    0x08000168   Section        0  ctype_o.o(.text)
    .text                                    0x08000170   Section        0  isspace_o.o(.text)
    .text                                    0x08000182   Section        0  memcpya.o(.text)
    .text                                    0x080001a6   Section        0  memseta.o(.text)
    .text                                    0x080001ca   Section        0  strstr.o(.text)
    .text                                    0x080001ee   Section        0  strlen.o(.text)
    .text                                    0x080001fc   Section        0  memchr.o(.text)
    .text                                    0x08000210   Section        0  memcmp.o(.text)
    .text                                    0x0800022a   Section        0  strtol.o(.text)
    .text                                    0x0800029a   Section        0  fadd.o(.text)
    .text                                    0x0800034a   Section        0  dadd.o(.text)
    .text                                    0x08000498   Section        0  dmul.o(.text)
    .text                                    0x0800057c   Section        0  ddiv.o(.text)
    .text                                    0x0800065a   Section        0  ffltui.o(.text)
    .text                                    0x08000664   Section        0  dflti.o(.text)
    .text                                    0x08000686   Section        0  dfltui.o(.text)
    .text                                    0x080006a0   Section        0  ffixui.o(.text)
    .text                                    0x080006c8   Section        0  dfixi.o(.text)
    .text                                    0x08000706   Section        0  f2d.o(.text)
    .text                                    0x0800072c   Section       48  cdrcmple.o(.text)
    .text                                    0x0800075c   Section        0  d2f.o(.text)
    .text                                    0x08000794   Section        0  uidiv.o(.text)
    .text                                    0x080007c0   Section        0  uldiv.o(.text)
    .text                                    0x08000822   Section        0  llshl.o(.text)
    .text                                    0x08000840   Section        0  llushr.o(.text)
    .text                                    0x08000860   Section        0  llsshr.o(.text)
    .text                                    0x08000884   Section        0  _strtoul.o(.text)
    .text                                    0x08000924   Section        0  strtod.o(.text)
    _local_sscanf                            0x08000925   Thumb Code    54  strtod.o(.text)
    .text                                    0x080009c0   Section        0  fepilogue.o(.text)
    .text                                    0x080009c0   Section        0  iusefp.o(.text)
    .text                                    0x08000a2e   Section        0  depilogue.o(.text)
    .text                                    0x08000ae8   Section        0  dfixul.o(.text)
    .text                                    0x08000b18   Section       36  init.o(.text)
    .text                                    0x08000b3c   Section        0  _chval.o(.text)
    .text                                    0x08000b58   Section        0  scanf_fp.o(.text)
    _fp_value                                0x08000b59   Thumb Code   256  scanf_fp.o(.text)
    .text                                    0x08000e90   Section        0  _sgetc.o(.text)
    .text                                    0x08000ed0   Section        0  dfltul.o(.text)
    .text                                    0x08000ee8   Section        0  __dczerorl2.o(.text)
    i.BusFault_Handler                       0x08000f3e   Section        0  stm32f10x_it.o(i.BusFault_Handler)
    i.CPU_TS_TmrInit                         0x08000f40   Section        0  core_delay.o(i.CPU_TS_TmrInit)
    i.CPU_TS_TmrRd                           0x08000f64   Section        0  core_delay.o(i.CPU_TS_TmrRd)
    i.CPU_TS_Tmr_Delay_US                    0x08000f70   Section        0  core_delay.o(i.CPU_TS_Tmr_Delay_US)
    i.DHT11_GPIO_Config                      0x08000fb8   Section        0  bsp_dht11.o(i.DHT11_GPIO_Config)
    DHT11_GPIO_Config                        0x08000fb9   Thumb Code    38  bsp_dht11.o(i.DHT11_GPIO_Config)
    i.DHT11_Init                             0x08000fe4   Section        0  bsp_dht11.o(i.DHT11_Init)
    i.DHT11_Mode_IPU                         0x08000ffc   Section        0  bsp_dht11.o(i.DHT11_Mode_IPU)
    DHT11_Mode_IPU                           0x08000ffd   Thumb Code    24  bsp_dht11.o(i.DHT11_Mode_IPU)
    i.DHT11_Mode_Out_PP                      0x08001018   Section        0  bsp_dht11.o(i.DHT11_Mode_Out_PP)
    DHT11_Mode_Out_PP                        0x08001019   Thumb Code    30  bsp_dht11.o(i.DHT11_Mode_Out_PP)
    i.DHT11_ReadByte                         0x0800103c   Section        0  bsp_dht11.o(i.DHT11_ReadByte)
    DHT11_ReadByte                           0x0800103d   Thumb Code    92  bsp_dht11.o(i.DHT11_ReadByte)
    i.DHT11_Read_TempAndHumidity             0x0800109c   Section        0  bsp_dht11.o(i.DHT11_Read_TempAndHumidity)
    i.DMA1_Channel3_IRQHandler               0x08001138   Section        0  stm32f10x_it.o(i.DMA1_Channel3_IRQHandler)
    i.DMA_ClearFlag                          0x0800113c   Section        0  stm32f10x_dma.o(i.DMA_ClearFlag)
    i.DMA_Cmd                                0x08001154   Section        0  stm32f10x_dma.o(i.DMA_Cmd)
    i.DMA_DeInit                             0x08001170   Section        0  stm32f10x_dma.o(i.DMA_DeInit)
    i.DMA_GetITStatus                        0x08001268   Section        0  stm32f10x_dma.o(i.DMA_GetITStatus)
    i.DMA_ITConfig                           0x0800128c   Section        0  stm32f10x_dma.o(i.DMA_ITConfig)
    i.DMA_Init                               0x080012a0   Section        0  stm32f10x_dma.o(i.DMA_Init)
    i.DMA_SetCurrDataCounter                 0x080012da   Section        0  stm32f10x_dma.o(i.DMA_SetCurrDataCounter)
    i.DMA_USARTx_TX_Config                   0x080012e0   Section        0  bsp_dma.o(i.DMA_USARTx_TX_Config)
    i.DebugMon_Handler                       0x0800133c   Section        0  stm32f10x_it.o(i.DebugMon_Handler)
    i.Delay_ms                               0x08001340   Section        0  bsp_systick.o(i.Delay_ms)
    i.EC20_CONNECT_MQTT_SERVER               0x08001364   Section        0  bsp_ec20.o(i.EC20_CONNECT_MQTT_SERVER)
    i.EC20_CONNECT_SERVER_CFG_INFOR          0x0800159c   Section        0  bsp_ec20.o(i.EC20_CONNECT_SERVER_CFG_INFOR)
    i.EC20_INIT                              0x080015a0   Section        0  bsp_ec20.o(i.EC20_INIT)
    i.EC20_MQTT_SEND_AUTO                    0x08001658   Section        0  bsp_ec20.o(i.EC20_MQTT_SEND_AUTO)
    i.EC20_check_cmd                         0x08001a44   Section        0  bsp_ec20.o(i.EC20_check_cmd)
    i.EC20_send_cmd                          0x08001a88   Section        0  bsp_ec20.o(i.EC20_send_cmd)
    i.EC20_work_test                         0x08001b1c   Section        0  bsp_ec20.o(i.EC20_work_test)
    i.EXTI0_IRQHandler                       0x08001bd0   Section        0  stm32f10x_it.o(i.EXTI0_IRQHandler)
    i.EXTI15_10_IRQHandler                   0x08001c1c   Section        0  stm32f10x_it.o(i.EXTI15_10_IRQHandler)
    i.EXTI_ClearITPendingBit                 0x08001c6c   Section        0  stm32f10x_exti.o(i.EXTI_ClearITPendingBit)
    i.EXTI_GetITStatus                       0x08001c78   Section        0  stm32f10x_exti.o(i.EXTI_GetITStatus)
    i.EXTI_Init                              0x08001c98   Section        0  stm32f10x_exti.o(i.EXTI_Init)
    i.EXTI_Key_Config                        0x08001d0c   Section        0  bsp_exti.o(i.EXTI_Key_Config)
    i.GMTconvert                             0x08001d8c   Section        0  gps_config.o(i.GMTconvert)
    i.GPIO_EXTILineConfig                    0x08001ed0   Section        0  stm32f10x_gpio.o(i.GPIO_EXTILineConfig)
    i.GPIO_Init                              0x08001ef8   Section        0  stm32f10x_gpio.o(i.GPIO_Init)
    i.GPIO_ReadInputDataBit                  0x08001f9e   Section        0  stm32f10x_gpio.o(i.GPIO_ReadInputDataBit)
    i.GPIO_ResetBits                         0x08001fac   Section        0  stm32f10x_gpio.o(i.GPIO_ResetBits)
    i.GPIO_SetBits                           0x08001fb0   Section        0  stm32f10x_gpio.o(i.GPIO_SetBits)
    i.GPS_Config                             0x08001fb4   Section        0  gps_config.o(i.GPS_Config)
    i.GPS_DMA_Config                         0x08001fc4   Section        0  gps_config.o(i.GPS_DMA_Config)
    GPS_DMA_Config                           0x08001fc5   Thumb Code    98  gps_config.o(i.GPS_DMA_Config)
    i.GPS_Interrupt_Config                   0x08002034   Section        0  gps_config.o(i.GPS_Interrupt_Config)
    GPS_Interrupt_Config                     0x08002035   Thumb Code    40  gps_config.o(i.GPS_Interrupt_Config)
    i.GPS_ProcessDMAIRQ                      0x0800205c   Section        0  stm32f10x_it.o(i.GPS_ProcessDMAIRQ)
    i.GPS_USART_Config                       0x080020a0   Section        0  gps_config.o(i.GPS_USART_Config)
    GPS_USART_Config                         0x080020a1   Thumb Code   122  gps_config.o(i.GPS_USART_Config)
    i.HardFault_Handler                      0x08002124   Section        0  stm32f10x_it.o(i.HardFault_Handler)
    i.I2C_CheckEvent                         0x08002126   Section        0  stm32f10x_i2c.o(i.I2C_CheckEvent)
    i.I2C_Cmd                                0x0800213e   Section        0  stm32f10x_i2c.o(i.I2C_Cmd)
    i.I2C_Configuration                      0x08002158   Section        0  oled_i2c.o(i.I2C_Configuration)
    i.I2C_GenerateSTART                      0x080021dc   Section        0  stm32f10x_i2c.o(i.I2C_GenerateSTART)
    i.I2C_GenerateSTOP                       0x080021f4   Section        0  stm32f10x_i2c.o(i.I2C_GenerateSTOP)
    i.I2C_GetFlagStatus                      0x0800220c   Section        0  stm32f10x_i2c.o(i.I2C_GetFlagStatus)
    i.I2C_Init                               0x08002240   Section        0  stm32f10x_i2c.o(i.I2C_Init)
    i.I2C_Send7bitAddress                    0x08002300   Section        0  stm32f10x_i2c.o(i.I2C_Send7bitAddress)
    i.I2C_SendData                           0x08002312   Section        0  stm32f10x_i2c.o(i.I2C_SendData)
    i.I2C_WriteByte                          0x08002318   Section        0  oled_i2c.o(i.I2C_WriteByte)
    i.IsLeapYear                             0x080023a4   Section        0  gps_config.o(i.IsLeapYear)
    IsLeapYear                               0x080023a5   Thumb Code    44  gps_config.o(i.IsLeapYear)
    i.LED_GPIO_Config                        0x080023d0   Section        0  bsp_led.o(i.LED_GPIO_Config)
    i.MemManage_Handler                      0x08002430   Section        0  stm32f10x_it.o(i.MemManage_Handler)
    i.NMI_Handler                            0x08002432   Section        0  stm32f10x_it.o(i.NMI_Handler)
    i.NVIC_Configuration                     0x08002434   Section        0  bsp_tim.o(i.NVIC_Configuration)
    NVIC_Configuration                       0x08002435   Thumb Code    40  bsp_tim.o(i.NVIC_Configuration)
    i.NVIC_Configuration                     0x0800245c   Section        0  bsp_usart1.o(i.NVIC_Configuration)
    NVIC_Configuration                       0x0800245d   Thumb Code    40  bsp_usart1.o(i.NVIC_Configuration)
    i.NVIC_Configuration                     0x08002484   Section        0  bsp_usart2.o(i.NVIC_Configuration)
    NVIC_Configuration                       0x08002485   Thumb Code    40  bsp_usart2.o(i.NVIC_Configuration)
    i.NVIC_Configuration                     0x080024ac   Section        0  bsp_exti.o(i.NVIC_Configuration)
    NVIC_Configuration                       0x080024ad   Thumb Code    52  bsp_exti.o(i.NVIC_Configuration)
    i.NVIC_Init                              0x080024e0   Section        0  misc.o(i.NVIC_Init)
    i.NVIC_PriorityGroupConfig               0x08002544   Section        0  misc.o(i.NVIC_PriorityGroupConfig)
    i.NVIC_SystemReset                       0x08002558   Section        0  main.o(i.NVIC_SystemReset)
    NVIC_SystemReset                         0x08002559   Thumb Code    20  main.o(i.NVIC_SystemReset)
    i.OLED_Fill                              0x08002574   Section        0  oled_i2c.o(i.OLED_Fill)
    i.OLED_Init                              0x080025aa   Section        0  oled_i2c.o(i.OLED_Init)
    i.OLED_SetPos                            0x08002660   Section        0  oled_i2c.o(i.OLED_SetPos)
    i.OLED_ShowCN                            0x08002688   Section        0  oled_i2c.o(i.OLED_ShowCN)
    i.OLED_ShowCN2                           0x080026d4   Section        0  oled_i2c.o(i.OLED_ShowCN2)
    i.OLED_ShowCN3                           0x08002720   Section        0  oled_i2c.o(i.OLED_ShowCN3)
    i.OLED_ShowStr                           0x0800276c   Section        0  oled_i2c.o(i.OLED_ShowStr)
    i.OLED_Show_num                          0x08002838   Section        0  oled_i2c.o(i.OLED_Show_num)
    i.PEC_Calculation                        0x08002898   Section        0  mlx90614.o(i.PEC_Calculation)
    i.PendSV_Handler                         0x08002940   Section        0  stm32f10x_it.o(i.PendSV_Handler)
    i.RCC_AHBPeriphClockCmd                  0x08002944   Section        0  stm32f10x_rcc.o(i.RCC_AHBPeriphClockCmd)
    i.RCC_APB1PeriphClockCmd                 0x08002960   Section        0  stm32f10x_rcc.o(i.RCC_APB1PeriphClockCmd)
    i.RCC_APB2PeriphClockCmd                 0x0800297c   Section        0  stm32f10x_rcc.o(i.RCC_APB2PeriphClockCmd)
    i.RCC_GetClocksFreq                      0x08002998   Section        0  stm32f10x_rcc.o(i.RCC_GetClocksFreq)
    i.SMBus_Delay                            0x08002a44   Section        0  mlx90614.o(i.SMBus_Delay)
    i.SMBus_Init                             0x08002a5c   Section        0  mlx90614.o(i.SMBus_Init)
    i.SMBus_ReadMemory                       0x08002a94   Section        0  mlx90614.o(i.SMBus_ReadMemory)
    i.SMBus_ReadTemp                         0x08002b1c   Section        0  mlx90614.o(i.SMBus_ReadTemp)
    i.SMBus_ReceiveBit                       0x08002b5c   Section        0  mlx90614.o(i.SMBus_ReceiveBit)
    i.SMBus_ReceiveByte                      0x08002b98   Section        0  mlx90614.o(i.SMBus_ReceiveByte)
    i.SMBus_SendBit                          0x08002bc8   Section        0  mlx90614.o(i.SMBus_SendBit)
    i.SMBus_SendByte                         0x08002bfc   Section        0  mlx90614.o(i.SMBus_SendByte)
    i.SMBus_StartBit                         0x08002c24   Section        0  mlx90614.o(i.SMBus_StartBit)
    i.SMBus_StopBit                          0x08002c58   Section        0  mlx90614.o(i.SMBus_StopBit)
    i.SVC_Handler                            0x08002c84   Section        0  stm32f10x_it.o(i.SVC_Handler)
    i.SetSysClock                            0x08002c86   Section        0  system_stm32f10x.o(i.SetSysClock)
    SetSysClock                              0x08002c87   Thumb Code     4  system_stm32f10x.o(i.SetSysClock)
    i.SetSysClockTo72                        0x08002c8c   Section        0  system_stm32f10x.o(i.SetSysClockTo72)
    SetSysClockTo72                          0x08002c8d   Thumb Code   166  system_stm32f10x.o(i.SetSysClockTo72)
    i.SysTick_Config                         0x08002d3c   Section        0  bsp_systick.o(i.SysTick_Config)
    SysTick_Config                           0x08002d3d   Thumb Code    40  bsp_systick.o(i.SysTick_Config)
    i.SysTick_Handler                        0x08002d68   Section        0  stm32f10x_it.o(i.SysTick_Handler)
    i.SysTick_Init                           0x08002d6c   Section        0  bsp_systick.o(i.SysTick_Init)
    i.SystemInit                             0x08002d80   Section        0  system_stm32f10x.o(i.SystemInit)
    i.TIM4_IRQHandler                        0x08002dd0   Section        0  stm32f10x_it.o(i.TIM4_IRQHandler)
    i.TIM4_Init                              0x08002e08   Section        0  bsp_tim.o(i.TIM4_Init)
    i.TIM4_Set                               0x08002e48   Section        0  bsp_tim.o(i.TIM4_Set)
    i.TIM_ClearITPendingBit                  0x08002e78   Section        0  stm32f10x_tim.o(i.TIM_ClearITPendingBit)
    i.TIM_Cmd                                0x08002e7e   Section        0  stm32f10x_tim.o(i.TIM_Cmd)
    i.TIM_GetITStatus                        0x08002e96   Section        0  stm32f10x_tim.o(i.TIM_GetITStatus)
    i.TIM_ITConfig                           0x08002eae   Section        0  stm32f10x_tim.o(i.TIM_ITConfig)
    i.TIM_SetCounter                         0x08002ec2   Section        0  stm32f10x_tim.o(i.TIM_SetCounter)
    i.TIM_TimeBaseInit                       0x08002ec8   Section        0  stm32f10x_tim.o(i.TIM_TimeBaseInit)
    i.TimingDelay_Decrement                  0x08002f64   Section        0  bsp_systick.o(i.TimingDelay_Decrement)
    i.UART_DMA_Enable                        0x08002f78   Section        0  bsp_dma.o(i.UART_DMA_Enable)
    i.USART1_Config                          0x08002f9c   Section        0  bsp_usart1.o(i.USART1_Config)
    i.USART1_IRQHandler                      0x08003030   Section        0  stm32f10x_it.o(i.USART1_IRQHandler)
    i.USART2_Config                          0x08003098   Section        0  bsp_usart2.o(i.USART2_Config)
    i.USART2_IRQHandler                      0x0800314c   Section        0  stm32f10x_it.o(i.USART2_IRQHandler)
    i.USART_Cmd                              0x080031a8   Section        0  stm32f10x_usart.o(i.USART_Cmd)
    i.USART_DMACmd                           0x080031c0   Section        0  stm32f10x_usart.o(i.USART_DMACmd)
    i.USART_GetFlagStatus                    0x080031d4   Section        0  stm32f10x_usart.o(i.USART_GetFlagStatus)
    i.USART_GetITStatus                      0x080031e2   Section        0  stm32f10x_usart.o(i.USART_GetITStatus)
    i.USART_ITConfig                         0x08003222   Section        0  stm32f10x_usart.o(i.USART_ITConfig)
    i.USART_Init                             0x08003258   Section        0  stm32f10x_usart.o(i.USART_Init)
    i.USART_ReceiveData                      0x08003314   Section        0  stm32f10x_usart.o(i.USART_ReceiveData)
    i.USART_SendData                         0x0800331c   Section        0  stm32f10x_usart.o(i.USART_SendData)
    i.UsageFault_Handler                     0x08003324   Section        0  stm32f10x_it.o(i.UsageFault_Handler)
    i.WriteCmd                               0x08003326   Section        0  oled_i2c.o(i.WriteCmd)
    i.WriteDat                               0x0800332e   Section        0  oled_i2c.o(i.WriteDat)
    i.__0printf                              0x08003338   Section        0  printfa.o(i.__0printf)
    i.__0sprintf                             0x08003358   Section        0  printfa.o(i.__0sprintf)
    i.__0vsnprintf                           0x08003380   Section        0  printfa.o(i.__0vsnprintf)
    i.__0vsprintf                            0x080033a4   Section        0  printfa.o(i.__0vsprintf)
    i.__aeabi_errno_addr                     0x080033c8   Section        0  errno.o(i.__aeabi_errno_addr)
    i.__scatterload_copy                     0x080033d0   Section       14  handlers.o(i.__scatterload_copy)
    i.__scatterload_null                     0x080033de   Section        2  handlers.o(i.__scatterload_null)
    i.__scatterload_zeroinit                 0x080033e0   Section       14  handlers.o(i.__scatterload_zeroinit)
    i._fp_digits                             0x080033f0   Section        0  printfa.o(i._fp_digits)
    _fp_digits                               0x080033f1   Thumb Code   334  printfa.o(i._fp_digits)
    i._is_digit                              0x08003554   Section        0  scanf_fp.o(i._is_digit)
    i._nmea_parse_time                       0x08003564   Section        0  parse.o(i._nmea_parse_time)
    i._printf_core                           0x08003604   Section        0  printfa.o(i._printf_core)
    _printf_core                             0x08003605   Thumb Code  1744  printfa.o(i._printf_core)
    i._printf_post_padding                   0x08003ce0   Section        0  printfa.o(i._printf_post_padding)
    _printf_post_padding                     0x08003ce1   Thumb Code    36  printfa.o(i._printf_post_padding)
    i._printf_pre_padding                    0x08003d04   Section        0  printfa.o(i._printf_pre_padding)
    _printf_pre_padding                      0x08003d05   Thumb Code    46  printfa.o(i._printf_pre_padding)
    i._snputc                                0x08003d32   Section        0  printfa.o(i._snputc)
    _snputc                                  0x08003d33   Thumb Code    22  printfa.o(i._snputc)
    i._sputc                                 0x08003d48   Section        0  printfa.o(i._sputc)
    _sputc                                   0x08003d49   Thumb Code    10  printfa.o(i._sputc)
    i.check_cmd                              0x08003d54   Section        0  bsp_ec20.o(i.check_cmd)
    i.error                                  0x08003d70   Section        0  gps_config.o(i.error)
    i.fputc                                  0x08003d74   Section        0  bsp_usart1.o(i.fputc)
    i.free                                   0x08003d98   Section        0  malloc.o(i.free)
    i.gps_info                               0x08003de8   Section        0  gps_config.o(i.gps_info)
    i.main                                   0x08003e28   Section        0  main.o(i.main)
    i.malloc                                 0x08004024   Section        0  malloc.o(i.malloc)
    i.nmea_BDGSA2info                        0x08004090   Section        0  parse.o(i.nmea_BDGSA2info)
    i.nmea_BDGSV2info                        0x08004100   Section        0  parse.o(i.nmea_BDGSV2info)
    i.nmea_GNGGA2info                        0x08004174   Section        0  parse.o(i.nmea_GNGGA2info)
    i.nmea_GNGLL2info                        0x080041da   Section        0  parse.o(i.nmea_GNGLL2info)
    i.nmea_GNRMC2info                        0x08004254   Section        0  parse.o(i.nmea_GNRMC2info)
    i.nmea_GNVTG2info                        0x080042f8   Section        0  parse.o(i.nmea_GNVTG2info)
    i.nmea_GNZDA2info                        0x0800432a   Section        0  parse.o(i.nmea_GNZDA2info)
    i.nmea_GPGGA2info                        0x08004342   Section        0  parse.o(i.nmea_GPGGA2info)
    i.nmea_GPGSA2info                        0x080043a4   Section        0  parse.o(i.nmea_GPGSA2info)
    i.nmea_GPGSV2info                        0x08004412   Section        0  parse.o(i.nmea_GPGSV2info)
    i.nmea_GPRMC2info                        0x08004484   Section        0  parse.o(i.nmea_GPRMC2info)
    i.nmea_GPTXT2info                        0x08004518   Section        0  parse.o(i.nmea_GPTXT2info)
    i.nmea_GPVTG2info                        0x080045a8   Section        0  parse.o(i.nmea_GPVTG2info)
    i.nmea_atof                              0x080045ca   Section        0  tok.o(i.nmea_atof)
    i.nmea_atoi                              0x080045f6   Section        0  tok.o(i.nmea_atoi)
    i.nmea_decode_test                       0x08004624   Section        0  nema_decode_test.o(i.nmea_decode_test)
    i.nmea_error                             0x08004990   Section        0  context.o(i.nmea_error)
    i.nmea_find_tail                         0x080049ce   Section        0  parse.o(i.nmea_find_tail)
    i.nmea_info                              0x08004a4a   Section        0  context.o(i.nmea_info)
    i.nmea_ndeg2degree                       0x08004a88   Section        0  gmath.o(i.nmea_ndeg2degree)
    i.nmea_pack_type                         0x08004ae4   Section        0  parse.o(i.nmea_pack_type)
    i.nmea_parse                             0x08004be8   Section        0  parser.o(i.nmea_parse)
    i.nmea_parse_BDGSA                       0x08004ce0   Section        0  parse.o(i.nmea_parse_BDGSA)
    i.nmea_parse_BDGSV                       0x08004db4   Section        0  parse.o(i.nmea_parse_BDGSV)
    i.nmea_parse_GNGGA                       0x08004e70   Section        0  parse.o(i.nmea_parse_GNGGA)
    i.nmea_parse_GNGLL                       0x08004f64   Section        0  parse.o(i.nmea_parse_GNGLL)
    i.nmea_parse_GNRMC                       0x08005024   Section        0  parse.o(i.nmea_parse_GNRMC)
    i.nmea_parse_GNVTG                       0x0800511c   Section        0  parse.o(i.nmea_parse_GNVTG)
    i.nmea_parse_GNZDA                       0x08005200   Section        0  parse.o(i.nmea_parse_GNZDA)
    i.nmea_parse_GPGGA                       0x080052c0   Section        0  parse.o(i.nmea_parse_GPGGA)
    i.nmea_parse_GPGSA                       0x080053b4   Section        0  parse.o(i.nmea_parse_GPGSA)
    i.nmea_parse_GPGSV                       0x08005488   Section        0  parse.o(i.nmea_parse_GPGSV)
    i.nmea_parse_GPRMC                       0x08005544   Section        0  parse.o(i.nmea_parse_GPRMC)
    i.nmea_parse_GPTXT                       0x0800563c   Section        0  parse.o(i.nmea_parse_GPTXT)
    i.nmea_parse_GPVTG                       0x080056b0   Section        0  parse.o(i.nmea_parse_GPVTG)
    i.nmea_parser_buff_clear                 0x0800578c   Section        0  parser.o(i.nmea_parser_buff_clear)
    i.nmea_parser_init                       0x08005794   Section        0  parser.o(i.nmea_parser_init)
    i.nmea_parser_pop                        0x080057e4   Section        0  parser.o(i.nmea_parser_pop)
    i.nmea_parser_push                       0x08005808   Section        0  parser.o(i.nmea_parser_push)
    i.nmea_parser_real_push                  0x08005834   Section        0  parser.o(i.nmea_parser_real_push)
    i.nmea_property                          0x08005c34   Section        0  context.o(i.nmea_property)
    i.nmea_scanf                             0x08005c3c   Section        0  tok.o(i.nmea_scanf)
    i.nmea_time_now                          0x08005df0   Section        0  time.o(i.nmea_time_now)
    i.nmea_trace_buff                        0x08005e06   Section        0  context.o(i.nmea_trace_buff)
    i.nmea_zero_INFO                         0x08005e22   Section        0  info.o(i.nmea_zero_INFO)
    i.strtod                                 0x08005e40   Section        0  strtod.o(i.strtod)
    i.trace                                  0x08005e5c   Section        0  gps_config.o(i.trace)
    i.u2_printf                              0x08005e60   Section        0  bsp_usart2.o(i.u2_printf)
    .constdata                               0x08005e9c   Section     2072  oled_i2c.o(.constdata)
    .constdata                               0x080066b4   Section      129  ctype_o.o(.constdata)
    .constdata                               0x08006738   Section        4  ctype_o.o(.constdata)
    table                                    0x08006738   Data           4  ctype_o.o(.constdata)
    .conststring                             0x0800673c   Section       96  bsp_ec20.o(.conststring)
    .conststring                             0x0800679c   Section      238  parse.o(.conststring)
    .data                                    0x20000000   Section       20  system_stm32f10x.o(.data)
    .data                                    0x20000014   Section       20  stm32f10x_rcc.o(.data)
    ADCPrescTable                            0x20000014   Data           4  stm32f10x_rcc.o(.data)
    APBAHBPrescTable                         0x20000018   Data          16  stm32f10x_rcc.o(.data)
    .data                                    0x20000028   Section        4  main.o(.data)
    .data                                    0x2000002c   Section        4  stm32f10x_it.o(.data)
    .data                                    0x20000030   Section       40  nema_decode_test.o(.data)
    .data                                    0x20000058   Section        4  bsp_systick.o(.data)
    TimingDelay                              0x20000058   Data           4  bsp_systick.o(.data)
    .data                                    0x2000005c   Section        1  gps_config.o(.data)
    .data                                    0x2000005d   Section        1  gps_config.o(.data)
    .data                                    0x20000060   Section       24  bsp_ec20.o(.data)
    .data                                    0x20000078   Section        2  bsp_usart1.o(.data)
    .data                                    0x2000007a   Section        2  bsp_usart2.o(.data)
    .data                                    0x2000007c   Section      608  oled_i2c.o(.data)
    .data                                    0x200002dc   Section       16  context.o(.data)
    prop                                     0x200002dc   Data          16  context.o(.data)
    .data                                    0x200002ec   Section       52  parse.o(.data)
    pheads                                   0x200002ec   Data          52  parse.o(.data)
    .data                                    0x20000320   Section        4  stdout.o(.data)
    .data                                    0x20000324   Section        4  mvars.o(.data)
    .data                                    0x20000328   Section        4  mvars.o(.data)
    .data                                    0x2000032c   Section        4  errno.o(.data)
    _errno                                   0x2000032c   Data           4  errno.o(.data)
    .bss                                     0x20000330   Section      512  gps_config.o(.bss)
    .bss                                     0x20000530   Section      510  bsp_ec20.o(.bss)
    .bss                                     0x2000072e   Section      200  bsp_usart1.o(.bss)
    .bss                                     0x200007f6   Section     1024  bsp_usart2.o(.bss)
    .bss                                     0x20000bf6   Section     1024  bsp_usart2.o(.bss)
    .bss                                     0x20000ff6   Section      256  parse.o(.bss)
    HEAP                                     0x200010f8   Section     4096  startup_stm32f10x_hd.o(HEAP)
    STACK                                    0x200020f8   Section     4096  startup_stm32f10x_hd.o(STACK)

    Global Symbols

    Symbol Name                              Value     Ov Type        Size  Object(Section)

    BuildAttributes$$THM_ISAv4$P$D$K$B$S$PE$A:L22UL41UL21$X:L11$S22US41US21$IEEE1$IW$USESV6$~STKCKD$USESV7$~SHL$OTIME$ROPI$IEEEX$EBA8$MICROLIB$REQ8$PRES8$EABIv2 0x00000000   Number         0  anon$$obj.o ABSOLUTE
    __ARM_use_no_argv                        0x00000000   Number         0  main.o ABSOLUTE
    _printf_a                                0x00000000   Number         0  stubs.o ABSOLUTE
    _printf_c                                0x00000000   Number         0  stubs.o ABSOLUTE
    _printf_charcount                        0x00000000   Number         0  stubs.o ABSOLUTE
    _printf_d                                0x00000000   Number         0  stubs.o ABSOLUTE
    _printf_e                                0x00000000   Number         0  stubs.o ABSOLUTE
    _printf_f                                0x00000000   Number         0  stubs.o ABSOLUTE
    _printf_flags                            0x00000000   Number         0  stubs.o ABSOLUTE
    _printf_fp_dec                           0x00000000   Number         0  stubs.o ABSOLUTE
    _printf_fp_hex                           0x00000000   Number         0  stubs.o ABSOLUTE
    _printf_g                                0x00000000   Number         0  stubs.o ABSOLUTE
    _printf_i                                0x00000000   Number         0  stubs.o ABSOLUTE
    _printf_int_dec                          0x00000000   Number         0  stubs.o ABSOLUTE
    _printf_l                                0x00000000   Number         0  stubs.o ABSOLUTE
    _printf_lc                               0x00000000   Number         0  stubs.o ABSOLUTE
    _printf_ll                               0x00000000   Number         0  stubs.o ABSOLUTE
    _printf_lld                              0x00000000   Number         0  stubs.o ABSOLUTE
    _printf_lli                              0x00000000   Number         0  stubs.o ABSOLUTE
    _printf_llo                              0x00000000   Number         0  stubs.o ABSOLUTE
    _printf_llu                              0x00000000   Number         0  stubs.o ABSOLUTE
    _printf_llx                              0x00000000   Number         0  stubs.o ABSOLUTE
    _printf_longlong_dec                     0x00000000   Number         0  stubs.o ABSOLUTE
    _printf_longlong_hex                     0x00000000   Number         0  stubs.o ABSOLUTE
    _printf_longlong_oct                     0x00000000   Number         0  stubs.o ABSOLUTE
    _printf_ls                               0x00000000   Number         0  stubs.o ABSOLUTE
    _printf_mbtowc                           0x00000000   Number         0  stubs.o ABSOLUTE
    _printf_n                                0x00000000   Number         0  stubs.o ABSOLUTE
    _printf_o                                0x00000000   Number         0  stubs.o ABSOLUTE
    _printf_p                                0x00000000   Number         0  stubs.o ABSOLUTE
    _printf_percent                          0x00000000   Number         0  stubs.o ABSOLUTE
    _printf_pre_padding                      0x00000000   Number         0  stubs.o ABSOLUTE
    _printf_return_value                     0x00000000   Number         0  stubs.o ABSOLUTE
    _printf_s                                0x00000000   Number         0  stubs.o ABSOLUTE
    _printf_sizespec                         0x00000000   Number         0  stubs.o ABSOLUTE
    _printf_str                              0x00000000   Number         0  stubs.o ABSOLUTE
    _printf_truncate_signed                  0x00000000   Number         0  stubs.o ABSOLUTE
    _printf_truncate_unsigned                0x00000000   Number         0  stubs.o ABSOLUTE
    _printf_u                                0x00000000   Number         0  stubs.o ABSOLUTE
    _printf_wc                               0x00000000   Number         0  stubs.o ABSOLUTE
    _printf_wctomb                           0x00000000   Number         0  stubs.o ABSOLUTE
    _printf_widthprec                        0x00000000   Number         0  stubs.o ABSOLUTE
    _printf_x                                0x00000000   Number         0  stubs.o ABSOLUTE
    __cpp_initialize__aeabi_                  - Undefined Weak Reference
    __cxa_finalize                            - Undefined Weak Reference
    _clock_init                               - Undefined Weak Reference
    _microlib_exit                            - Undefined Weak Reference
    __Vectors_Size                           0x00000130   Number         0  startup_stm32f10x_hd.o ABSOLUTE
    __Vectors                                0x08000000   Data           4  startup_stm32f10x_hd.o(RESET)
    __Vectors_End                            0x08000130   Data           0  startup_stm32f10x_hd.o(RESET)
    __main                                   0x08000131   Thumb Code     0  entry.o(.ARM.Collect$$$$00000000)
    _main_stk                                0x08000131   Thumb Code     0  entry2.o(.ARM.Collect$$$$00000001)
    _main_scatterload                        0x08000135   Thumb Code     0  entry5.o(.ARM.Collect$$$$00000004)
    __main_after_scatterload                 0x08000139   Thumb Code     0  entry5.o(.ARM.Collect$$$$00000004)
    _main_clock                              0x08000139   Thumb Code     0  entry7b.o(.ARM.Collect$$$$00000008)
    _main_cpp_init                           0x08000139   Thumb Code     0  entry8b.o(.ARM.Collect$$$$0000000A)
    _main_init                               0x08000139   Thumb Code     0  entry9a.o(.ARM.Collect$$$$0000000B)
    __rt_final_cpp                           0x08000141   Thumb Code     0  entry10a.o(.ARM.Collect$$$$0000000D)
    __rt_final_exit                          0x08000141   Thumb Code     0  entry11a.o(.ARM.Collect$$$$0000000F)
    Reset_Handler                            0x08000145   Thumb Code     8  startup_stm32f10x_hd.o(.text)
    ADC1_2_IRQHandler                        0x0800015f   Thumb Code     0  startup_stm32f10x_hd.o(.text)
    ADC3_IRQHandler                          0x0800015f   Thumb Code     0  startup_stm32f10x_hd.o(.text)
    CAN1_RX1_IRQHandler                      0x0800015f   Thumb Code     0  startup_stm32f10x_hd.o(.text)
    CAN1_SCE_IRQHandler                      0x0800015f   Thumb Code     0  startup_stm32f10x_hd.o(.text)
    DMA1_Channel1_IRQHandler                 0x0800015f   Thumb Code     0  startup_stm32f10x_hd.o(.text)
    DMA1_Channel2_IRQHandler                 0x0800015f   Thumb Code     0  startup_stm32f10x_hd.o(.text)
    DMA1_Channel4_IRQHandler                 0x0800015f   Thumb Code     0  startup_stm32f10x_hd.o(.text)
    DMA1_Channel5_IRQHandler                 0x0800015f   Thumb Code     0  startup_stm32f10x_hd.o(.text)
    DMA1_Channel6_IRQHandler                 0x0800015f   Thumb Code     0  startup_stm32f10x_hd.o(.text)
    DMA1_Channel7_IRQHandler                 0x0800015f   Thumb Code     0  startup_stm32f10x_hd.o(.text)
    DMA2_Channel1_IRQHandler                 0x0800015f   Thumb Code     0  startup_stm32f10x_hd.o(.text)
    DMA2_Channel2_IRQHandler                 0x0800015f   Thumb Code     0  startup_stm32f10x_hd.o(.text)
    DMA2_Channel3_IRQHandler                 0x0800015f   Thumb Code     0  startup_stm32f10x_hd.o(.text)
    DMA2_Channel4_5_IRQHandler               0x0800015f   Thumb Code     0  startup_stm32f10x_hd.o(.text)
    EXTI1_IRQHandler                         0x0800015f   Thumb Code     0  startup_stm32f10x_hd.o(.text)
    EXTI2_IRQHandler                         0x0800015f   Thumb Code     0  startup_stm32f10x_hd.o(.text)
    EXTI3_IRQHandler                         0x0800015f   Thumb Code     0  startup_stm32f10x_hd.o(.text)
    EXTI4_IRQHandler                         0x0800015f   Thumb Code     0  startup_stm32f10x_hd.o(.text)
    EXTI9_5_IRQHandler                       0x0800015f   Thumb Code     0  startup_stm32f10x_hd.o(.text)
    FLASH_IRQHandler                         0x0800015f   Thumb Code     0  startup_stm32f10x_hd.o(.text)
    FSMC_IRQHandler                          0x0800015f   Thumb Code     0  startup_stm32f10x_hd.o(.text)
    I2C1_ER_IRQHandler                       0x0800015f   Thumb Code     0  startup_stm32f10x_hd.o(.text)
    I2C1_EV_IRQHandler                       0x0800015f   Thumb Code     0  startup_stm32f10x_hd.o(.text)
    I2C2_ER_IRQHandler                       0x0800015f   Thumb Code     0  startup_stm32f10x_hd.o(.text)
    I2C2_EV_IRQHandler                       0x0800015f   Thumb Code     0  startup_stm32f10x_hd.o(.text)
    PVD_IRQHandler                           0x0800015f   Thumb Code     0  startup_stm32f10x_hd.o(.text)
    RCC_IRQHandler                           0x0800015f   Thumb Code     0  startup_stm32f10x_hd.o(.text)
    RTCAlarm_IRQHandler                      0x0800015f   Thumb Code     0  startup_stm32f10x_hd.o(.text)
    RTC_IRQHandler                           0x0800015f   Thumb Code     0  startup_stm32f10x_hd.o(.text)
    SDIO_IRQHandler                          0x0800015f   Thumb Code     0  startup_stm32f10x_hd.o(.text)
    SPI1_IRQHandler                          0x0800015f   Thumb Code     0  startup_stm32f10x_hd.o(.text)
    SPI2_IRQHandler                          0x0800015f   Thumb Code     0  startup_stm32f10x_hd.o(.text)
    SPI3_IRQHandler                          0x0800015f   Thumb Code     0  startup_stm32f10x_hd.o(.text)
    TAMPER_IRQHandler                        0x0800015f   Thumb Code     0  startup_stm32f10x_hd.o(.text)
    TIM1_BRK_IRQHandler                      0x0800015f   Thumb Code     0  startup_stm32f10x_hd.o(.text)
    TIM1_CC_IRQHandler                       0x0800015f   Thumb Code     0  startup_stm32f10x_hd.o(.text)
    TIM1_TRG_COM_IRQHandler                  0x0800015f   Thumb Code     0  startup_stm32f10x_hd.o(.text)
    TIM1_UP_IRQHandler                       0x0800015f   Thumb Code     0  startup_stm32f10x_hd.o(.text)
    TIM2_IRQHandler                          0x0800015f   Thumb Code     0  startup_stm32f10x_hd.o(.text)
    TIM3_IRQHandler                          0x0800015f   Thumb Code     0  startup_stm32f10x_hd.o(.text)
    TIM5_IRQHandler                          0x0800015f   Thumb Code     0  startup_stm32f10x_hd.o(.text)
    TIM6_IRQHandler                          0x0800015f   Thumb Code     0  startup_stm32f10x_hd.o(.text)
    TIM7_IRQHandler                          0x0800015f   Thumb Code     0  startup_stm32f10x_hd.o(.text)
    TIM8_BRK_IRQHandler                      0x0800015f   Thumb Code     0  startup_stm32f10x_hd.o(.text)
    TIM8_CC_IRQHandler                       0x0800015f   Thumb Code     0  startup_stm32f10x_hd.o(.text)
    TIM8_TRG_COM_IRQHandler                  0x0800015f   Thumb Code     0  startup_stm32f10x_hd.o(.text)
    TIM8_UP_IRQHandler                       0x0800015f   Thumb Code     0  startup_stm32f10x_hd.o(.text)
    UART4_IRQHandler                         0x0800015f   Thumb Code     0  startup_stm32f10x_hd.o(.text)
    UART5_IRQHandler                         0x0800015f   Thumb Code     0  startup_stm32f10x_hd.o(.text)
    USART3_IRQHandler                        0x0800015f   Thumb Code     0  startup_stm32f10x_hd.o(.text)
    USBWakeUp_IRQHandler                     0x0800015f   Thumb Code     0  startup_stm32f10x_hd.o(.text)
    USB_HP_CAN1_TX_IRQHandler                0x0800015f   Thumb Code     0  startup_stm32f10x_hd.o(.text)
    USB_LP_CAN1_RX0_IRQHandler               0x0800015f   Thumb Code     0  startup_stm32f10x_hd.o(.text)
    WWDG_IRQHandler                          0x0800015f   Thumb Code     0  startup_stm32f10x_hd.o(.text)
    __rt_ctype_table                         0x08000169   Thumb Code     4  ctype_o.o(.text)
    isspace                                  0x08000171   Thumb Code    18  isspace_o.o(.text)
    __aeabi_memcpy                           0x08000183   Thumb Code    36  memcpya.o(.text)
    __aeabi_memcpy4                          0x08000183   Thumb Code     0  memcpya.o(.text)
    __aeabi_memcpy8                          0x08000183   Thumb Code     0  memcpya.o(.text)
    __aeabi_memset                           0x080001a7   Thumb Code    14  memseta.o(.text)
    __aeabi_memset4                          0x080001a7   Thumb Code     0  memseta.o(.text)
    __aeabi_memset8                          0x080001a7   Thumb Code     0  memseta.o(.text)
    __aeabi_memclr                           0x080001b5   Thumb Code     4  memseta.o(.text)
    __aeabi_memclr4                          0x080001b5   Thumb Code     0  memseta.o(.text)
    __aeabi_memclr8                          0x080001b5   Thumb Code     0  memseta.o(.text)
    _memset$wrapper                          0x080001b9   Thumb Code    18  memseta.o(.text)
    strstr                                   0x080001cb   Thumb Code    36  strstr.o(.text)
    strlen                                   0x080001ef   Thumb Code    14  strlen.o(.text)
    memchr                                   0x080001fd   Thumb Code    20  memchr.o(.text)
    memcmp                                   0x08000211   Thumb Code    26  memcmp.o(.text)
    strtol                                   0x0800022b   Thumb Code   112  strtol.o(.text)
    __aeabi_fadd                             0x0800029b   Thumb Code   164  fadd.o(.text)
    __aeabi_fsub                             0x0800033f   Thumb Code     6  fadd.o(.text)
    __aeabi_frsub                            0x08000345   Thumb Code     6  fadd.o(.text)
    __aeabi_dadd                             0x0800034b   Thumb Code   322  dadd.o(.text)
    __aeabi_dsub                             0x0800048d   Thumb Code     6  dadd.o(.text)
    __aeabi_drsub                            0x08000493   Thumb Code     6  dadd.o(.text)
    __aeabi_dmul                             0x08000499   Thumb Code   228  dmul.o(.text)
    __aeabi_ddiv                             0x0800057d   Thumb Code   222  ddiv.o(.text)
    __aeabi_ui2f                             0x0800065b   Thumb Code    10  ffltui.o(.text)
    __aeabi_i2d                              0x08000665   Thumb Code    34  dflti.o(.text)
    __aeabi_ui2d                             0x08000687   Thumb Code    26  dfltui.o(.text)
    __aeabi_f2uiz                            0x080006a1   Thumb Code    40  ffixui.o(.text)
    __aeabi_d2iz                             0x080006c9   Thumb Code    62  dfixi.o(.text)
    __aeabi_f2d                              0x08000707   Thumb Code    38  f2d.o(.text)
    __aeabi_cdrcmple                         0x0800072d   Thumb Code    48  cdrcmple.o(.text)
    __aeabi_d2f                              0x0800075d   Thumb Code    56  d2f.o(.text)
    __aeabi_uidiv                            0x08000795   Thumb Code     0  uidiv.o(.text)
    __aeabi_uidivmod                         0x08000795   Thumb Code    44  uidiv.o(.text)
    __aeabi_uldivmod                         0x080007c1   Thumb Code    98  uldiv.o(.text)
    __aeabi_llsl                             0x08000823   Thumb Code    30  llshl.o(.text)
    _ll_shift_l                              0x08000823   Thumb Code     0  llshl.o(.text)
    __aeabi_llsr                             0x08000841   Thumb Code    32  llushr.o(.text)
    _ll_ushift_r                             0x08000841   Thumb Code     0  llushr.o(.text)
    __aeabi_lasr                             0x08000861   Thumb Code    36  llsshr.o(.text)
    _ll_sshift_r                             0x08000861   Thumb Code     0  llsshr.o(.text)
    _strtoul                                 0x08000885   Thumb Code   158  _strtoul.o(.text)
    __strtod_int                             0x0800095b   Thumb Code    88  strtod.o(.text)
    __I$use$fp                               0x080009c1   Thumb Code     0  iusefp.o(.text)
    _float_round                             0x080009c1   Thumb Code    18  fepilogue.o(.text)
    _float_epilogue                          0x080009d3   Thumb Code    92  fepilogue.o(.text)
    _double_round                            0x08000a2f   Thumb Code    30  depilogue.o(.text)
    _double_epilogue                         0x08000a4d   Thumb Code   156  depilogue.o(.text)
    __aeabi_d2ulz                            0x08000ae9   Thumb Code    48  dfixul.o(.text)
    __scatterload                            0x08000b19   Thumb Code    28  init.o(.text)
    __scatterload_rt2                        0x08000b19   Thumb Code     0  init.o(.text)
    _chval                                   0x08000b3d   Thumb Code    28  _chval.o(.text)
    _scanf_real                              0x08000c59   Thumb Code     0  scanf_fp.o(.text)
    _scanf_really_real                       0x08000c59   Thumb Code   556  scanf_fp.o(.text)
    _sgetc                                   0x08000e91   Thumb Code    30  _sgetc.o(.text)
    _sbackspace                              0x08000eaf   Thumb Code    34  _sgetc.o(.text)
    __aeabi_ul2d                             0x08000ed1   Thumb Code    24  dfltul.o(.text)
    __decompress                             0x08000ee9   Thumb Code     0  __dczerorl2.o(.text)
    __decompress1                            0x08000ee9   Thumb Code    86  __dczerorl2.o(.text)
    BusFault_Handler                         0x08000f3f   Thumb Code     2  stm32f10x_it.o(i.BusFault_Handler)
    CPU_TS_TmrInit                           0x08000f41   Thumb Code    26  core_delay.o(i.CPU_TS_TmrInit)
    CPU_TS_TmrRd                             0x08000f65   Thumb Code     6  core_delay.o(i.CPU_TS_TmrRd)
    CPU_TS_Tmr_Delay_US                      0x08000f71   Thumb Code    62  core_delay.o(i.CPU_TS_Tmr_Delay_US)
    DHT11_Init                               0x08000fe5   Thumb Code    18  bsp_dht11.o(i.DHT11_Init)
    DHT11_Read_TempAndHumidity               0x0800109d   Thumb Code   152  bsp_dht11.o(i.DHT11_Read_TempAndHumidity)
    DMA1_Channel3_IRQHandler                 0x08001139   Thumb Code     4  stm32f10x_it.o(i.DMA1_Channel3_IRQHandler)
    DMA_ClearFlag                            0x0800113d   Thumb Code    16  stm32f10x_dma.o(i.DMA_ClearFlag)
    DMA_Cmd                                  0x08001155   Thumb Code    26  stm32f10x_dma.o(i.DMA_Cmd)
    DMA_DeInit                               0x08001171   Thumb Code   238  stm32f10x_dma.o(i.DMA_DeInit)
    DMA_GetITStatus                          0x08001269   Thumb Code    26  stm32f10x_dma.o(i.DMA_GetITStatus)
    DMA_ITConfig                             0x0800128d   Thumb Code    20  stm32f10x_dma.o(i.DMA_ITConfig)
    DMA_Init                                 0x080012a1   Thumb Code    58  stm32f10x_dma.o(i.DMA_Init)
    DMA_SetCurrDataCounter                   0x080012db   Thumb Code     4  stm32f10x_dma.o(i.DMA_SetCurrDataCounter)
    DMA_USARTx_TX_Config                     0x080012e1   Thumb Code    80  bsp_dma.o(i.DMA_USARTx_TX_Config)
    DebugMon_Handler                         0x0800133d   Thumb Code     2  stm32f10x_it.o(i.DebugMon_Handler)
    Delay_ms                                 0x08001341   Thumb Code    30  bsp_systick.o(i.Delay_ms)
    EC20_CONNECT_MQTT_SERVER                 0x08001365   Thumb Code   228  bsp_ec20.o(i.EC20_CONNECT_MQTT_SERVER)
    EC20_CONNECT_SERVER_CFG_INFOR            0x0800159d   Thumb Code     4  bsp_ec20.o(i.EC20_CONNECT_SERVER_CFG_INFOR)
    EC20_INIT                                0x080015a1   Thumb Code    68  bsp_ec20.o(i.EC20_INIT)
    EC20_MQTT_SEND_AUTO                      0x08001659   Thumb Code   682  bsp_ec20.o(i.EC20_MQTT_SEND_AUTO)
    EC20_check_cmd                           0x08001a45   Thumb Code    44  bsp_ec20.o(i.EC20_check_cmd)
    EC20_send_cmd                            0x08001a89   Thumb Code   110  bsp_ec20.o(i.EC20_send_cmd)
    EC20_work_test                           0x08001b1d   Thumb Code   110  bsp_ec20.o(i.EC20_work_test)
    EXTI0_IRQHandler                         0x08001bd1   Thumb Code    48  stm32f10x_it.o(i.EXTI0_IRQHandler)
    EXTI15_10_IRQHandler                     0x08001c1d   Thumb Code    52  stm32f10x_it.o(i.EXTI15_10_IRQHandler)
    EXTI_ClearITPendingBit                   0x08001c6d   Thumb Code     6  stm32f10x_exti.o(i.EXTI_ClearITPendingBit)
    EXTI_GetITStatus                         0x08001c79   Thumb Code    28  stm32f10x_exti.o(i.EXTI_GetITStatus)
    EXTI_Init                                0x08001c99   Thumb Code   110  stm32f10x_exti.o(i.EXTI_Init)
    EXTI_Key_Config                          0x08001d0d   Thumb Code   120  bsp_exti.o(i.EXTI_Key_Config)
    GMTconvert                               0x08001d8d   Thumb Code   324  gps_config.o(i.GMTconvert)
    GPIO_EXTILineConfig                      0x08001ed1   Thumb Code    34  stm32f10x_gpio.o(i.GPIO_EXTILineConfig)
    GPIO_Init                                0x08001ef9   Thumb Code   166  stm32f10x_gpio.o(i.GPIO_Init)
    GPIO_ReadInputDataBit                    0x08001f9f   Thumb Code    14  stm32f10x_gpio.o(i.GPIO_ReadInputDataBit)
    GPIO_ResetBits                           0x08001fad   Thumb Code     4  stm32f10x_gpio.o(i.GPIO_ResetBits)
    GPIO_SetBits                             0x08001fb1   Thumb Code     4  stm32f10x_gpio.o(i.GPIO_SetBits)
    GPS_Config                               0x08001fb5   Thumb Code    14  gps_config.o(i.GPS_Config)
    GPS_ProcessDMAIRQ                        0x0800205d   Thumb Code    60  stm32f10x_it.o(i.GPS_ProcessDMAIRQ)
    HardFault_Handler                        0x08002125   Thumb Code     2  stm32f10x_it.o(i.HardFault_Handler)
    I2C_CheckEvent                           0x08002127   Thumb Code    24  stm32f10x_i2c.o(i.I2C_CheckEvent)
    I2C_Cmd                                  0x0800213f   Thumb Code    24  stm32f10x_i2c.o(i.I2C_Cmd)
    I2C_Configuration                        0x08002159   Thumb Code   120  oled_i2c.o(i.I2C_Configuration)
    I2C_GenerateSTART                        0x080021dd   Thumb Code    24  stm32f10x_i2c.o(i.I2C_GenerateSTART)
    I2C_GenerateSTOP                         0x080021f5   Thumb Code    24  stm32f10x_i2c.o(i.I2C_GenerateSTOP)
    I2C_GetFlagStatus                        0x0800220d   Thumb Code    50  stm32f10x_i2c.o(i.I2C_GetFlagStatus)
    I2C_Init                                 0x08002241   Thumb Code   182  stm32f10x_i2c.o(i.I2C_Init)
    I2C_Send7bitAddress                      0x08002301   Thumb Code    18  stm32f10x_i2c.o(i.I2C_Send7bitAddress)
    I2C_SendData                             0x08002313   Thumb Code     4  stm32f10x_i2c.o(i.I2C_SendData)
    I2C_WriteByte                            0x08002319   Thumb Code   128  oled_i2c.o(i.I2C_WriteByte)
    LED_GPIO_Config                          0x080023d1   Thumb Code    92  bsp_led.o(i.LED_GPIO_Config)
    MemManage_Handler                        0x08002431   Thumb Code     2  stm32f10x_it.o(i.MemManage_Handler)
    NMI_Handler                              0x08002433   Thumb Code     2  stm32f10x_it.o(i.NMI_Handler)
    NVIC_Init                                0x080024e1   Thumb Code    96  misc.o(i.NVIC_Init)
    NVIC_PriorityGroupConfig                 0x08002545   Thumb Code    10  misc.o(i.NVIC_PriorityGroupConfig)
    OLED_Fill                                0x08002575   Thumb Code    54  oled_i2c.o(i.OLED_Fill)
    OLED_Init                                0x080025ab   Thumb Code   182  oled_i2c.o(i.OLED_Init)
    OLED_SetPos                              0x08002661   Thumb Code    38  oled_i2c.o(i.OLED_SetPos)
    OLED_ShowCN                              0x08002689   Thumb Code    70  oled_i2c.o(i.OLED_ShowCN)
    OLED_ShowCN2                             0x080026d5   Thumb Code    70  oled_i2c.o(i.OLED_ShowCN2)
    OLED_ShowCN3                             0x08002721   Thumb Code    70  oled_i2c.o(i.OLED_ShowCN3)
    OLED_ShowStr                             0x0800276d   Thumb Code   194  oled_i2c.o(i.OLED_ShowStr)
    OLED_Show_num                            0x08002839   Thumb Code    82  oled_i2c.o(i.OLED_Show_num)
    PEC_Calculation                          0x08002899   Thumb Code   168  mlx90614.o(i.PEC_Calculation)
    PendSV_Handler                           0x08002941   Thumb Code     2  stm32f10x_it.o(i.PendSV_Handler)
    RCC_AHBPeriphClockCmd                    0x08002945   Thumb Code    22  stm32f10x_rcc.o(i.RCC_AHBPeriphClockCmd)
    RCC_APB1PeriphClockCmd                   0x08002961   Thumb Code    22  stm32f10x_rcc.o(i.RCC_APB1PeriphClockCmd)
    RCC_APB2PeriphClockCmd                   0x0800297d   Thumb Code    22  stm32f10x_rcc.o(i.RCC_APB2PeriphClockCmd)
    RCC_GetClocksFreq                        0x08002999   Thumb Code   154  stm32f10x_rcc.o(i.RCC_GetClocksFreq)
    SMBus_Delay                              0x08002a45   Thumb Code    24  mlx90614.o(i.SMBus_Delay)
    SMBus_Init                               0x08002a5d   Thumb Code    50  mlx90614.o(i.SMBus_Init)
    SMBus_ReadMemory                         0x08002a95   Thumb Code   136  mlx90614.o(i.SMBus_ReadMemory)
    SMBus_ReadTemp                           0x08002b1d   Thumb Code    50  mlx90614.o(i.SMBus_ReadTemp)
    SMBus_ReceiveBit                         0x08002b5d   Thumb Code    56  mlx90614.o(i.SMBus_ReceiveBit)
    SMBus_ReceiveByte                        0x08002b99   Thumb Code    46  mlx90614.o(i.SMBus_ReceiveByte)
    SMBus_SendBit                            0x08002bc9   Thumb Code    46  mlx90614.o(i.SMBus_SendBit)
    SMBus_SendByte                           0x08002bfd   Thumb Code    40  mlx90614.o(i.SMBus_SendByte)
    SMBus_StartBit                           0x08002c25   Thumb Code    48  mlx90614.o(i.SMBus_StartBit)
    SMBus_StopBit                            0x08002c59   Thumb Code    40  mlx90614.o(i.SMBus_StopBit)
    SVC_Handler                              0x08002c85   Thumb Code     2  stm32f10x_it.o(i.SVC_Handler)
    SysTick_Handler                          0x08002d69   Thumb Code     4  stm32f10x_it.o(i.SysTick_Handler)
    SysTick_Init                             0x08002d6d   Thumb Code    16  bsp_systick.o(i.SysTick_Init)
    SystemInit                               0x08002d81   Thumb Code    64  system_stm32f10x.o(i.SystemInit)
    TIM4_IRQHandler                          0x08002dd1   Thumb Code    46  stm32f10x_it.o(i.TIM4_IRQHandler)
    TIM4_Init                                0x08002e09   Thumb Code    58  bsp_tim.o(i.TIM4_Init)
    TIM4_Set                                 0x08002e49   Thumb Code    42  bsp_tim.o(i.TIM4_Set)
    TIM_ClearITPendingBit                    0x08002e79   Thumb Code     6  stm32f10x_tim.o(i.TIM_ClearITPendingBit)
    TIM_Cmd                                  0x08002e7f   Thumb Code    24  stm32f10x_tim.o(i.TIM_Cmd)
    TIM_GetITStatus                          0x08002e97   Thumb Code    24  stm32f10x_tim.o(i.TIM_GetITStatus)
    TIM_ITConfig                             0x08002eaf   Thumb Code    20  stm32f10x_tim.o(i.TIM_ITConfig)
    TIM_SetCounter                           0x08002ec3   Thumb Code     4  stm32f10x_tim.o(i.TIM_SetCounter)
    TIM_TimeBaseInit                         0x08002ec9   Thumb Code   114  stm32f10x_tim.o(i.TIM_TimeBaseInit)
    TimingDelay_Decrement                    0x08002f65   Thumb Code    14  bsp_systick.o(i.TimingDelay_Decrement)
    UART_DMA_Enable                          0x08002f79   Thumb Code    34  bsp_dma.o(i.UART_DMA_Enable)
    USART1_Config                            0x08002f9d   Thumb Code   138  bsp_usart1.o(i.USART1_Config)
    USART1_IRQHandler                        0x08003031   Thumb Code    92  stm32f10x_it.o(i.USART1_IRQHandler)
    USART2_Config                            0x08003099   Thumb Code   168  bsp_usart2.o(i.USART2_Config)
    USART2_IRQHandler                        0x0800314d   Thumb Code    74  stm32f10x_it.o(i.USART2_IRQHandler)
    USART_Cmd                                0x080031a9   Thumb Code    24  stm32f10x_usart.o(i.USART_Cmd)
    USART_DMACmd                             0x080031c1   Thumb Code    20  stm32f10x_usart.o(i.USART_DMACmd)
    USART_GetFlagStatus                      0x080031d5   Thumb Code    14  stm32f10x_usart.o(i.USART_GetFlagStatus)
    USART_GetITStatus                        0x080031e3   Thumb Code    64  stm32f10x_usart.o(i.USART_GetITStatus)
    USART_ITConfig                           0x08003223   Thumb Code    54  stm32f10x_usart.o(i.USART_ITConfig)
    USART_Init                               0x08003259   Thumb Code   182  stm32f10x_usart.o(i.USART_Init)
    USART_ReceiveData                        0x08003315   Thumb Code     8  stm32f10x_usart.o(i.USART_ReceiveData)
    USART_SendData                           0x0800331d   Thumb Code     8  stm32f10x_usart.o(i.USART_SendData)
    UsageFault_Handler                       0x08003325   Thumb Code     2  stm32f10x_it.o(i.UsageFault_Handler)
    WriteCmd                                 0x08003327   Thumb Code     8  oled_i2c.o(i.WriteCmd)
    WriteDat                                 0x0800332f   Thumb Code     8  oled_i2c.o(i.WriteDat)
    __0printf                                0x08003339   Thumb Code    22  printfa.o(i.__0printf)
    __1printf                                0x08003339   Thumb Code     0  printfa.o(i.__0printf)
    __2printf                                0x08003339   Thumb Code     0  printfa.o(i.__0printf)
    __c89printf                              0x08003339   Thumb Code     0  printfa.o(i.__0printf)
    printf                                   0x08003339   Thumb Code     0  printfa.o(i.__0printf)
    __0sprintf                               0x08003359   Thumb Code    34  printfa.o(i.__0sprintf)
    __1sprintf                               0x08003359   Thumb Code     0  printfa.o(i.__0sprintf)
    __2sprintf                               0x08003359   Thumb Code     0  printfa.o(i.__0sprintf)
    __c89sprintf                             0x08003359   Thumb Code     0  printfa.o(i.__0sprintf)
    sprintf                                  0x08003359   Thumb Code     0  printfa.o(i.__0sprintf)
    __0vsnprintf                             0x08003381   Thumb Code    32  printfa.o(i.__0vsnprintf)
    __1vsnprintf                             0x08003381   Thumb Code     0  printfa.o(i.__0vsnprintf)
    __2vsnprintf                             0x08003381   Thumb Code     0  printfa.o(i.__0vsnprintf)
    __c89vsnprintf                           0x08003381   Thumb Code     0  printfa.o(i.__0vsnprintf)
    vsnprintf                                0x08003381   Thumb Code     0  printfa.o(i.__0vsnprintf)
    __0vsprintf                              0x080033a5   Thumb Code    30  printfa.o(i.__0vsprintf)
    __1vsprintf                              0x080033a5   Thumb Code     0  printfa.o(i.__0vsprintf)
    __2vsprintf                              0x080033a5   Thumb Code     0  printfa.o(i.__0vsprintf)
    __c89vsprintf                            0x080033a5   Thumb Code     0  printfa.o(i.__0vsprintf)
    vsprintf                                 0x080033a5   Thumb Code     0  printfa.o(i.__0vsprintf)
    __aeabi_errno_addr                       0x080033c9   Thumb Code     4  errno.o(i.__aeabi_errno_addr)
    __rt_errno_addr                          0x080033c9   Thumb Code     0  errno.o(i.__aeabi_errno_addr)
    __scatterload_copy                       0x080033d1   Thumb Code    14  handlers.o(i.__scatterload_copy)
    __scatterload_null                       0x080033df   Thumb Code     2  handlers.o(i.__scatterload_null)
    __scatterload_zeroinit                   0x080033e1   Thumb Code    14  handlers.o(i.__scatterload_zeroinit)
    _is_digit                                0x08003555   Thumb Code    14  scanf_fp.o(i._is_digit)
    _nmea_parse_time                         0x08003565   Thumb Code    94  parse.o(i._nmea_parse_time)
    check_cmd                                0x08003d55   Thumb Code    20  bsp_ec20.o(i.check_cmd)
    error                                    0x08003d71   Thumb Code     2  gps_config.o(i.error)
    fputc                                    0x08003d75   Thumb Code    30  bsp_usart1.o(i.fputc)
    free                                     0x08003d99   Thumb Code    76  malloc.o(i.free)
    gps_info                                 0x08003de9   Thumb Code    42  gps_config.o(i.gps_info)
    main                                     0x08003e29   Thumb Code   256  main.o(i.main)
    malloc                                   0x08004025   Thumb Code    92  malloc.o(i.malloc)
    nmea_BDGSA2info                          0x08004091   Thumb Code   112  parse.o(i.nmea_BDGSA2info)
    nmea_BDGSV2info                          0x08004101   Thumb Code   116  parse.o(i.nmea_BDGSV2info)
    nmea_GNGGA2info                          0x08004175   Thumb Code   102  parse.o(i.nmea_GNGGA2info)
    nmea_GNGLL2info                          0x080041db   Thumb Code   122  parse.o(i.nmea_GNGLL2info)
    nmea_GNRMC2info                          0x08004255   Thumb Code   156  parse.o(i.nmea_GNRMC2info)
    nmea_GNVTG2info                          0x080042f9   Thumb Code    50  parse.o(i.nmea_GNVTG2info)
    nmea_GNZDA2info                          0x0800432b   Thumb Code    24  parse.o(i.nmea_GNZDA2info)
    nmea_GPGGA2info                          0x08004343   Thumb Code    98  parse.o(i.nmea_GPGGA2info)
    nmea_GPGSA2info                          0x080043a5   Thumb Code   110  parse.o(i.nmea_GPGSA2info)
    nmea_GPGSV2info                          0x08004413   Thumb Code   114  parse.o(i.nmea_GPGSV2info)
    nmea_GPRMC2info                          0x08004485   Thumb Code   140  parse.o(i.nmea_GPRMC2info)
    nmea_GPTXT2info                          0x08004519   Thumb Code    62  parse.o(i.nmea_GPTXT2info)
    nmea_GPVTG2info                          0x080045a9   Thumb Code    34  parse.o(i.nmea_GPVTG2info)
    nmea_atof                                0x080045cb   Thumb Code    44  tok.o(i.nmea_atof)
    nmea_atoi                                0x080045f7   Thumb Code    46  tok.o(i.nmea_atoi)
    nmea_decode_test                         0x08004625   Thumb Code   494  nema_decode_test.o(i.nmea_decode_test)
    nmea_error                               0x08004991   Thumb Code    62  context.o(i.nmea_error)
    nmea_find_tail                           0x080049cf   Thumb Code   124  parse.o(i.nmea_find_tail)
    nmea_info                                0x08004a4b   Thumb Code    62  context.o(i.nmea_info)
    nmea_ndeg2degree                         0x08004a89   Thumb Code    84  gmath.o(i.nmea_ndeg2degree)
    nmea_pack_type                           0x08004ae5   Thumb Code   254  parse.o(i.nmea_pack_type)
    nmea_parse                               0x08004be9   Thumb Code   248  parser.o(i.nmea_parse)
    nmea_parse_BDGSA                         0x08004ce1   Thumb Code   130  parse.o(i.nmea_parse_BDGSA)
    nmea_parse_BDGSV                         0x08004db5   Thumb Code   164  parse.o(i.nmea_parse_BDGSV)
    nmea_parse_GNGGA                         0x08004e71   Thumb Code   146  parse.o(i.nmea_parse_GNGGA)
    nmea_parse_GNGLL                         0x08004f65   Thumb Code   116  parse.o(i.nmea_parse_GNGLL)
    nmea_parse_GNRMC                         0x08005025   Thumb Code   152  parse.o(i.nmea_parse_GNRMC)
    nmea_parse_GNVTG                         0x0800511d   Thumb Code   134  parse.o(i.nmea_parse_GNVTG)
    nmea_parse_GNZDA                         0x08005201   Thumb Code   114  parse.o(i.nmea_parse_GNZDA)
    nmea_parse_GPGGA                         0x080052c1   Thumb Code   146  parse.o(i.nmea_parse_GPGGA)
    nmea_parse_GPGSA                         0x080053b5   Thumb Code   130  parse.o(i.nmea_parse_GPGSA)
    nmea_parse_GPGSV                         0x08005489   Thumb Code   164  parse.o(i.nmea_parse_GPGSV)
    nmea_parse_GPRMC                         0x08005545   Thumb Code   152  parse.o(i.nmea_parse_GPRMC)
    nmea_parse_GPTXT                         0x0800563d   Thumb Code    68  parse.o(i.nmea_parse_GPTXT)
    nmea_parse_GPVTG                         0x080056b1   Thumb Code   132  parse.o(i.nmea_parse_GPVTG)
    nmea_parser_buff_clear                   0x0800578d   Thumb Code     8  parser.o(i.nmea_parser_buff_clear)
    nmea_parser_init                         0x08005795   Thumb Code    54  parser.o(i.nmea_parser_init)
    nmea_parser_pop                          0x080057e5   Thumb Code    36  parser.o(i.nmea_parser_pop)
    nmea_parser_push                         0x08005809   Thumb Code    44  parser.o(i.nmea_parser_push)
    nmea_parser_real_push                    0x08005835   Thumb Code   998  parser.o(i.nmea_parser_real_push)
    nmea_property                            0x08005c35   Thumb Code     4  context.o(i.nmea_property)
    nmea_scanf                               0x08005c3d   Thumb Code   436  tok.o(i.nmea_scanf)
    nmea_time_now                            0x08005df1   Thumb Code    22  time.o(i.nmea_time_now)
    nmea_trace_buff                          0x08005e07   Thumb Code    28  context.o(i.nmea_trace_buff)
    nmea_zero_INFO                           0x08005e23   Thumb Code    30  info.o(i.nmea_zero_INFO)
    strtod                                   0x08005e41   Thumb Code    28  strtod.o(i.strtod)
    trace                                    0x08005e5d   Thumb Code     2  gps_config.o(i.trace)
    u2_printf                                0x08005e61   Thumb Code    50  bsp_usart2.o(i.u2_printf)
    F6x8                                     0x08005e9c   Data         552  oled_i2c.o(.constdata)
    F8X16                                    0x080060c4   Data        1520  oled_i2c.o(.constdata)
    __ctype_table                            0x080066b4   Data         129  ctype_o.o(.constdata)
    Region$$Table$$Base                      0x0800688c   Number         0  anon$$obj.o(Region$$Table)
    Region$$Table$$Limit                     0x080068ac   Number         0  anon$$obj.o(Region$$Table)
    SystemCoreClock                          0x20000000   Data           4  system_stm32f10x.o(.data)
    AHBPrescTable                            0x20000004   Data          16  system_stm32f10x.o(.data)
    errcont                                  0x20000028   Data           4  main.o(.data)
    man                                      0x2000002c   Data           4  stm32f10x_it.o(.data)
    m                                        0x20000030   Data           1  nema_decode_test.o(.data)
    body_temperature                         0x20000034   Data           4  nema_decode_test.o(.data)
    deg_lat                                  0x20000038   Data           8  nema_decode_test.o(.data)
    deg_lon                                  0x20000040   Data           8  nema_decode_test.o(.data)
    deg_elv                                  0x20000048   Data           8  nema_decode_test.o(.data)
    deg_speed                                0x20000050   Data           8  nema_decode_test.o(.data)
    GPS_TransferEnd                          0x2000005c   Data           1  gps_config.o(.data)
    GPS_HalfTransferEnd                      0x2000005d   Data           1  gps_config.o(.data)
    DHT11_Data                               0x20000060   Data           5  bsp_ec20.o(.data)
    temp                                     0x20000068   Data           8  bsp_ec20.o(.data)
    humi                                     0x20000070   Data           8  bsp_ec20.o(.data)
    USART1_RX_STA                            0x20000078   Data           2  bsp_usart1.o(.data)
    USART2_RX_STA                            0x2000007a   Data           2  bsp_usart2.o(.data)
    F16x16                                   0x2000007c   Data         128  oled_i2c.o(.data)
    FF16x16                                  0x200000fc   Data         256  oled_i2c.o(.data)
    FFF16x16                                 0x200001fc   Data         224  oled_i2c.o(.data)
    __stdout                                 0x20000320   Data           4  stdout.o(.data)
    __microlib_freelist                      0x20000324   Data           4  mvars.o(.data)
    __microlib_freelist_initialised          0x20000328   Data           4  mvars.o(.data)
    gps_rbuff                                0x20000330   Data         512  gps_config.o(.bss)
    EC20CSQ                                  0x20000530   Data         255  bsp_ec20.o(.bss)
    AtStrBuf                                 0x2000062f   Data         255  bsp_ec20.o(.bss)
    USART1_RX_BUF                            0x2000072e   Data         200  bsp_usart1.o(.bss)
    USART2_TX_BUF                            0x200007f6   Data        1024  bsp_usart2.o(.bss)
    USART2_RX_BUF                            0x20000bf6   Data        1024  bsp_usart2.o(.bss)
    txt_buff                                 0x20000ff6   Data         256  parse.o(.bss)
    __heap_base                              0x200010f8   Data           0  startup_stm32f10x_hd.o(HEAP)
    __heap_limit                             0x200020f8   Data           0  startup_stm32f10x_hd.o(HEAP)
    __initial_sp                             0x200030f8   Data           0  startup_stm32f10x_hd.o(STACK)



==============================================================================

Memory Map of the image

  Image Entry point : 0x08000131

  Load Region LR_IROM1 (Base: 0x08000000, Size: 0x00006bdc, Max: 0x00080000, ABSOLUTE, COMPRESSED[0x00006ad4])

    Execution Region ER_IROM1 (Base: 0x08000000, Size: 0x000068ac, Max: 0x00080000, ABSOLUTE)

    Base Addr    Size         Type   Attr      Idx    E Section Name        Object

    0x08000000   0x00000130   Data   RO            3    RESET               startup_stm32f10x_hd.o
    0x08000130   0x00000000   Code   RO         3308  * .ARM.Collect$$$$00000000  mc_w.l(entry.o)
    0x08000130   0x00000004   Code   RO         3714    .ARM.Collect$$$$00000001  mc_w.l(entry2.o)
    0x08000134   0x00000004   Code   RO         3717    .ARM.Collect$$$$00000004  mc_w.l(entry5.o)
    0x08000138   0x00000000   Code   RO         3719    .ARM.Collect$$$$00000008  mc_w.l(entry7b.o)
    0x08000138   0x00000000   Code   RO         3721    .ARM.Collect$$$$0000000A  mc_w.l(entry8b.o)
    0x08000138   0x00000008   Code   RO         3722    .ARM.Collect$$$$0000000B  mc_w.l(entry9a.o)
    0x08000140   0x00000000   Code   RO         3724    .ARM.Collect$$$$0000000D  mc_w.l(entry10a.o)
    0x08000140   0x00000000   Code   RO         3726    .ARM.Collect$$$$0000000F  mc_w.l(entry11a.o)
    0x08000140   0x00000004   Code   RO         3715    .ARM.Collect$$$$00002712  mc_w.l(entry2.o)
    0x08000144   0x00000024   Code   RO            4    .text               startup_stm32f10x_hd.o
    0x08000168   0x00000008   Code   RO         3311    .text               mc_w.l(ctype_o.o)
    0x08000170   0x00000012   Code   RO         3333    .text               mc_w.l(isspace_o.o)
    0x08000182   0x00000024   Code   RO         3342    .text               mc_w.l(memcpya.o)
    0x080001a6   0x00000024   Code   RO         3344    .text               mc_w.l(memseta.o)
    0x080001ca   0x00000024   Code   RO         3346    .text               mc_w.l(strstr.o)
    0x080001ee   0x0000000e   Code   RO         3348    .text               mc_w.l(strlen.o)
    0x080001fc   0x00000014   Code   RO         3350    .text               mc_w.l(memchr.o)
    0x08000210   0x0000001a   Code   RO         3352    .text               mc_w.l(memcmp.o)
    0x0800022a   0x00000070   Code   RO         3645    .text               mc_w.l(strtol.o)
    0x0800029a   0x000000b0   Code   RO         3647    .text               mf_w.l(fadd.o)
    0x0800034a   0x0000014e   Code   RO         3649    .text               mf_w.l(dadd.o)
    0x08000498   0x000000e4   Code   RO         3651    .text               mf_w.l(dmul.o)
    0x0800057c   0x000000de   Code   RO         3653    .text               mf_w.l(ddiv.o)
    0x0800065a   0x0000000a   Code   RO         3657    .text               mf_w.l(ffltui.o)
    0x08000664   0x00000022   Code   RO         3659    .text               mf_w.l(dflti.o)
    0x08000686   0x0000001a   Code   RO         3661    .text               mf_w.l(dfltui.o)
    0x080006a0   0x00000028   Code   RO         3663    .text               mf_w.l(ffixui.o)
    0x080006c8   0x0000003e   Code   RO         3665    .text               mf_w.l(dfixi.o)
    0x08000706   0x00000026   Code   RO         3667    .text               mf_w.l(f2d.o)
    0x0800072c   0x00000030   Code   RO         3671    .text               mf_w.l(cdrcmple.o)
    0x0800075c   0x00000038   Code   RO         3673    .text               mf_w.l(d2f.o)
    0x08000794   0x0000002c   Code   RO         3729    .text               mc_w.l(uidiv.o)
    0x080007c0   0x00000062   Code   RO         3731    .text               mc_w.l(uldiv.o)
    0x08000822   0x0000001e   Code   RO         3733    .text               mc_w.l(llshl.o)
    0x08000840   0x00000020   Code   RO         3735    .text               mc_w.l(llushr.o)
    0x08000860   0x00000024   Code   RO         3737    .text               mc_w.l(llsshr.o)
    0x08000884   0x0000009e   Code   RO         3748    .text               mc_w.l(_strtoul.o)
    0x08000922   0x00000002   PAD
    0x08000924   0x0000009c   Code   RO         3750    .text               mc_w.l(strtod.o)
    0x080009c0   0x00000000   Code   RO         3752    .text               mc_w.l(iusefp.o)
    0x080009c0   0x0000006e   Code   RO         3753    .text               mf_w.l(fepilogue.o)
    0x08000a2e   0x000000ba   Code   RO         3755    .text               mf_w.l(depilogue.o)
    0x08000ae8   0x00000030   Code   RO         3759    .text               mf_w.l(dfixul.o)
    0x08000b18   0x00000024   Code   RO         3761    .text               mc_w.l(init.o)
    0x08000b3c   0x0000001c   Code   RO         3765    .text               mc_w.l(_chval.o)
    0x08000b58   0x00000338   Code   RO         3767    .text               mc_w.l(scanf_fp.o)
    0x08000e90   0x00000040   Code   RO         3771    .text               mc_w.l(_sgetc.o)
    0x08000ed0   0x00000018   Code   RO         3776    .text               mf_w.l(dfltul.o)
    0x08000ee8   0x00000056   Code   RO         3786    .text               mc_w.l(__dczerorl2.o)
    0x08000f3e   0x00000002   Code   RO         1672    i.BusFault_Handler  stm32f10x_it.o
    0x08000f40   0x00000024   Code   RO         1839    i.CPU_TS_TmrInit    core_delay.o
    0x08000f64   0x0000000c   Code   RO         1840    i.CPU_TS_TmrRd      core_delay.o
    0x08000f70   0x00000048   Code   RO         1841    i.CPU_TS_Tmr_Delay_US  core_delay.o
    0x08000fb8   0x0000002c   Code   RO         2012    i.DHT11_GPIO_Config  bsp_dht11.o
    0x08000fe4   0x00000018   Code   RO         2013    i.DHT11_Init        bsp_dht11.o
    0x08000ffc   0x0000001c   Code   RO         2014    i.DHT11_Mode_IPU    bsp_dht11.o
    0x08001018   0x00000024   Code   RO         2015    i.DHT11_Mode_Out_PP  bsp_dht11.o
    0x0800103c   0x00000060   Code   RO         2016    i.DHT11_ReadByte    bsp_dht11.o
    0x0800109c   0x0000009c   Code   RO         2017    i.DHT11_Read_TempAndHumidity  bsp_dht11.o
    0x08001138   0x00000004   Code   RO         1673    i.DMA1_Channel3_IRQHandler  stm32f10x_it.o
    0x0800113c   0x00000018   Code   RO          177    i.DMA_ClearFlag     stm32f10x_dma.o
    0x08001154   0x0000001a   Code   RO          179    i.DMA_Cmd           stm32f10x_dma.o
    0x0800116e   0x00000002   PAD
    0x08001170   0x000000f8   Code   RO          180    i.DMA_DeInit        stm32f10x_dma.o
    0x08001268   0x00000024   Code   RO          183    i.DMA_GetITStatus   stm32f10x_dma.o
    0x0800128c   0x00000014   Code   RO          184    i.DMA_ITConfig      stm32f10x_dma.o
    0x080012a0   0x0000003a   Code   RO          185    i.DMA_Init          stm32f10x_dma.o
    0x080012da   0x00000004   Code   RO          186    i.DMA_SetCurrDataCounter  stm32f10x_dma.o
    0x080012de   0x00000002   PAD
    0x080012e0   0x0000005c   Code   RO         1866    i.DMA_USARTx_TX_Config  bsp_dma.o
    0x0800133c   0x00000002   Code   RO         1674    i.DebugMon_Handler  stm32f10x_it.o
    0x0800133e   0x00000002   PAD
    0x08001340   0x00000024   Code   RO         1792    i.Delay_ms          bsp_systick.o
    0x08001364   0x00000238   Code   RO         1948    i.EC20_CONNECT_MQTT_SERVER  bsp_ec20.o
    0x0800159c   0x00000004   Code   RO         1949    i.EC20_CONNECT_SERVER_CFG_INFOR  bsp_ec20.o
    0x080015a0   0x000000b8   Code   RO         1950    i.EC20_INIT         bsp_ec20.o
    0x08001658   0x000003ec   Code   RO         1951    i.EC20_MQTT_SEND_AUTO  bsp_ec20.o
    0x08001a44   0x00000044   Code   RO         1952    i.EC20_check_cmd    bsp_ec20.o
    0x08001a88   0x00000094   Code   RO         1953    i.EC20_send_cmd     bsp_ec20.o
    0x08001b1c   0x000000b4   Code   RO         1954    i.EC20_work_test    bsp_ec20.o
    0x08001bd0   0x0000004c   Code   RO         1675    i.EXTI0_IRQHandler  stm32f10x_it.o
    0x08001c1c   0x00000050   Code   RO         1676    i.EXTI15_10_IRQHandler  stm32f10x_it.o
    0x08001c6c   0x0000000c   Code   RO          250    i.EXTI_ClearITPendingBit  stm32f10x_exti.o
    0x08001c78   0x00000020   Code   RO          254    i.EXTI_GetITStatus  stm32f10x_exti.o
    0x08001c98   0x00000074   Code   RO          255    i.EXTI_Init         stm32f10x_exti.o
    0x08001d0c   0x00000080   Code   RO         2179    i.EXTI_Key_Config   bsp_exti.o
    0x08001d8c   0x00000144   Code   RO         1884    i.GMTconvert        gps_config.o
    0x08001ed0   0x00000028   Code   RO          306    i.GPIO_EXTILineConfig  stm32f10x_gpio.o
    0x08001ef8   0x000000a6   Code   RO          309    i.GPIO_Init         stm32f10x_gpio.o
    0x08001f9e   0x0000000e   Code   RO          313    i.GPIO_ReadInputDataBit  stm32f10x_gpio.o
    0x08001fac   0x00000004   Code   RO          316    i.GPIO_ResetBits    stm32f10x_gpio.o
    0x08001fb0   0x00000004   Code   RO          317    i.GPIO_SetBits      stm32f10x_gpio.o
    0x08001fb4   0x0000000e   Code   RO         1885    i.GPS_Config        gps_config.o
    0x08001fc2   0x00000002   PAD
    0x08001fc4   0x00000070   Code   RO         1886    i.GPS_DMA_Config    gps_config.o
    0x08002034   0x00000028   Code   RO         1887    i.GPS_Interrupt_Config  gps_config.o
    0x0800205c   0x00000044   Code   RO         1677    i.GPS_ProcessDMAIRQ  stm32f10x_it.o
    0x080020a0   0x00000084   Code   RO         1888    i.GPS_USART_Config  gps_config.o
    0x08002124   0x00000002   Code   RO         1678    i.HardFault_Handler  stm32f10x_it.o
    0x08002126   0x00000018   Code   RO          420    i.I2C_CheckEvent    stm32f10x_i2c.o
    0x0800213e   0x00000018   Code   RO          423    i.I2C_Cmd           stm32f10x_i2c.o
    0x08002156   0x00000002   PAD
    0x08002158   0x00000084   Code   RO         2271    i.I2C_Configuration  oled_i2c.o
    0x080021dc   0x00000018   Code   RO          430    i.I2C_GenerateSTART  stm32f10x_i2c.o
    0x080021f4   0x00000018   Code   RO          431    i.I2C_GenerateSTOP  stm32f10x_i2c.o
    0x0800220c   0x00000032   Code   RO          432    i.I2C_GetFlagStatus  stm32f10x_i2c.o
    0x0800223e   0x00000002   PAD
    0x08002240   0x000000c0   Code   RO          437    i.I2C_Init          stm32f10x_i2c.o
    0x08002300   0x00000012   Code   RO          444    i.I2C_Send7bitAddress  stm32f10x_i2c.o
    0x08002312   0x00000004   Code   RO          445    i.I2C_SendData      stm32f10x_i2c.o
    0x08002316   0x00000002   PAD
    0x08002318   0x0000008c   Code   RO         2272    i.I2C_WriteByte     oled_i2c.o
    0x080023a4   0x0000002c   Code   RO         1889    i.IsLeapYear        gps_config.o
    0x080023d0   0x00000060   Code   RO         2050    i.LED_GPIO_Config   bsp_led.o
    0x08002430   0x00000002   Code   RO         1679    i.MemManage_Handler  stm32f10x_it.o
    0x08002432   0x00000002   Code   RO         1680    i.NMI_Handler       stm32f10x_it.o
    0x08002434   0x00000028   Code   RO         2062    i.NVIC_Configuration  bsp_tim.o
    0x0800245c   0x00000028   Code   RO         2098    i.NVIC_Configuration  bsp_usart1.o
    0x08002484   0x00000028   Code   RO         2134    i.NVIC_Configuration  bsp_usart2.o
    0x080024ac   0x00000034   Code   RO         2180    i.NVIC_Configuration  bsp_exti.o
    0x080024e0   0x00000064   Code   RO          137    i.NVIC_Init         misc.o
    0x08002544   0x00000014   Code   RO          138    i.NVIC_PriorityGroupConfig  misc.o
    0x08002558   0x0000001c   Code   RO         1549    i.NVIC_SystemReset  main.o
    0x08002574   0x00000036   Code   RO         2274    i.OLED_Fill         oled_i2c.o
    0x080025aa   0x000000b6   Code   RO         2275    i.OLED_Init         oled_i2c.o
    0x08002660   0x00000026   Code   RO         2278    i.OLED_SetPos       oled_i2c.o
    0x08002686   0x00000002   PAD
    0x08002688   0x0000004c   Code   RO         2279    i.OLED_ShowCN       oled_i2c.o
    0x080026d4   0x0000004c   Code   RO         2280    i.OLED_ShowCN2      oled_i2c.o
    0x08002720   0x0000004c   Code   RO         2281    i.OLED_ShowCN3      oled_i2c.o
    0x0800276c   0x000000cc   Code   RO         2282    i.OLED_ShowStr      oled_i2c.o
    0x08002838   0x00000060   Code   RO         2283    i.OLED_Show_num     oled_i2c.o
    0x08002898   0x000000a8   Code   RO         2196    i.PEC_Calculation   mlx90614.o
    0x08002940   0x00000002   Code   RO         1681    i.PendSV_Handler    stm32f10x_it.o
    0x08002942   0x00000002   PAD
    0x08002944   0x0000001c   Code   RO          622    i.RCC_AHBPeriphClockCmd  stm32f10x_rcc.o
    0x08002960   0x0000001c   Code   RO          623    i.RCC_APB1PeriphClockCmd  stm32f10x_rcc.o
    0x0800297c   0x0000001c   Code   RO          625    i.RCC_APB2PeriphClockCmd  stm32f10x_rcc.o
    0x08002998   0x000000ac   Code   RO          633    i.RCC_GetClocksFreq  stm32f10x_rcc.o
    0x08002a44   0x00000018   Code   RO         2197    i.SMBus_Delay       mlx90614.o
    0x08002a5c   0x00000038   Code   RO         2198    i.SMBus_Init        mlx90614.o
    0x08002a94   0x00000088   Code   RO         2199    i.SMBus_ReadMemory  mlx90614.o
    0x08002b1c   0x00000040   Code   RO         2200    i.SMBus_ReadTemp    mlx90614.o
    0x08002b5c   0x0000003c   Code   RO         2201    i.SMBus_ReceiveBit  mlx90614.o
    0x08002b98   0x0000002e   Code   RO         2202    i.SMBus_ReceiveByte  mlx90614.o
    0x08002bc6   0x00000002   PAD
    0x08002bc8   0x00000034   Code   RO         2203    i.SMBus_SendBit     mlx90614.o
    0x08002bfc   0x00000028   Code   RO         2204    i.SMBus_SendByte    mlx90614.o
    0x08002c24   0x00000034   Code   RO         2205    i.SMBus_StartBit    mlx90614.o
    0x08002c58   0x0000002c   Code   RO         2206    i.SMBus_StopBit     mlx90614.o
    0x08002c84   0x00000002   Code   RO         1682    i.SVC_Handler       stm32f10x_it.o
    0x08002c86   0x00000004   Code   RO           24    i.SetSysClock       system_stm32f10x.o
    0x08002c8a   0x00000002   PAD
    0x08002c8c   0x000000b0   Code   RO           25    i.SetSysClockTo72   system_stm32f10x.o
    0x08002d3c   0x0000002c   Code   RO         1793    i.SysTick_Config    bsp_systick.o
    0x08002d68   0x00000004   Code   RO         1683    i.SysTick_Handler   stm32f10x_it.o
    0x08002d6c   0x00000014   Code   RO         1796    i.SysTick_Init      bsp_systick.o
    0x08002d80   0x00000050   Code   RO           27    i.SystemInit        system_stm32f10x.o
    0x08002dd0   0x00000038   Code   RO         1684    i.TIM4_IRQHandler   stm32f10x_it.o
    0x08002e08   0x00000040   Code   RO         2063    i.TIM4_Init         bsp_tim.o
    0x08002e48   0x00000030   Code   RO         2064    i.TIM4_Set          bsp_tim.o
    0x08002e78   0x00000006   Code   RO          832    i.TIM_ClearITPendingBit  stm32f10x_tim.o
    0x08002e7e   0x00000018   Code   RO          837    i.TIM_Cmd           stm32f10x_tim.o
    0x08002e96   0x00000018   Code   RO          858    i.TIM_GetITStatus   stm32f10x_tim.o
    0x08002eae   0x00000014   Code   RO          862    i.TIM_ITConfig      stm32f10x_tim.o
    0x08002ec2   0x00000004   Code   RO          902    i.TIM_SetCounter    stm32f10x_tim.o
    0x08002ec6   0x00000002   PAD
    0x08002ec8   0x0000009c   Code   RO          908    i.TIM_TimeBaseInit  stm32f10x_tim.o
    0x08002f64   0x00000014   Code   RO         1797    i.TimingDelay_Decrement  bsp_systick.o
    0x08002f78   0x00000022   Code   RO         1867    i.UART_DMA_Enable   bsp_dma.o
    0x08002f9a   0x00000002   PAD
    0x08002f9c   0x00000094   Code   RO         2099    i.USART1_Config     bsp_usart1.o
    0x08003030   0x00000068   Code   RO         1685    i.USART1_IRQHandler  stm32f10x_it.o
    0x08003098   0x000000b4   Code   RO         2135    i.USART2_Config     bsp_usart2.o
    0x0800314c   0x0000005c   Code   RO         1686    i.USART2_IRQHandler  stm32f10x_it.o
    0x080031a8   0x00000018   Code   RO         1373    i.USART_Cmd         stm32f10x_usart.o
    0x080031c0   0x00000014   Code   RO         1374    i.USART_DMACmd      stm32f10x_usart.o
    0x080031d4   0x0000000e   Code   RO         1376    i.USART_GetFlagStatus  stm32f10x_usart.o
    0x080031e2   0x00000040   Code   RO         1377    i.USART_GetITStatus  stm32f10x_usart.o
    0x08003222   0x00000036   Code   RO         1379    i.USART_ITConfig    stm32f10x_usart.o
    0x08003258   0x000000bc   Code   RO         1380    i.USART_Init        stm32f10x_usart.o
    0x08003314   0x00000008   Code   RO         1387    i.USART_ReceiveData  stm32f10x_usart.o
    0x0800331c   0x00000008   Code   RO         1390    i.USART_SendData    stm32f10x_usart.o
    0x08003324   0x00000002   Code   RO         1687    i.UsageFault_Handler  stm32f10x_it.o
    0x08003326   0x00000008   Code   RO         2284    i.WriteCmd          oled_i2c.o
    0x0800332e   0x00000008   Code   RO         2285    i.WriteDat          oled_i2c.o
    0x08003336   0x00000002   PAD
    0x08003338   0x00000020   Code   RO         3589    i.__0printf         mc_w.l(printfa.o)
    0x08003358   0x00000028   Code   RO         3591    i.__0sprintf        mc_w.l(printfa.o)
    0x08003380   0x00000024   Code   RO         3594    i.__0vsnprintf      mc_w.l(printfa.o)
    0x080033a4   0x00000024   Code   RO         3595    i.__0vsprintf       mc_w.l(printfa.o)
    0x080033c8   0x00000008   Code   RO         3741    i.__aeabi_errno_addr  mc_w.l(errno.o)
    0x080033d0   0x0000000e   Code   RO         3780    i.__scatterload_copy  mc_w.l(handlers.o)
    0x080033de   0x00000002   Code   RO         3781    i.__scatterload_null  mc_w.l(handlers.o)
    0x080033e0   0x0000000e   Code   RO         3782    i.__scatterload_zeroinit  mc_w.l(handlers.o)
    0x080033ee   0x00000002   PAD
    0x080033f0   0x00000164   Code   RO         3596    i._fp_digits        mc_w.l(printfa.o)
    0x08003554   0x0000000e   Code   RO         3769    i._is_digit         mc_w.l(scanf_fp.o)
    0x08003562   0x00000002   PAD
    0x08003564   0x000000a0   Code   RO         2795    i._nmea_parse_time  parse.o
    0x08003604   0x000006dc   Code   RO         3597    i._printf_core      mc_w.l(printfa.o)
    0x08003ce0   0x00000024   Code   RO         3598    i._printf_post_padding  mc_w.l(printfa.o)
    0x08003d04   0x0000002e   Code   RO         3599    i._printf_pre_padding  mc_w.l(printfa.o)
    0x08003d32   0x00000016   Code   RO         3600    i._snputc           mc_w.l(printfa.o)
    0x08003d48   0x0000000a   Code   RO         3601    i._sputc            mc_w.l(printfa.o)
    0x08003d52   0x00000002   PAD
    0x08003d54   0x0000001c   Code   RO         1955    i.check_cmd         bsp_ec20.o
    0x08003d70   0x00000002   Code   RO         1890    i.error             gps_config.o
    0x08003d72   0x00000002   PAD
    0x08003d74   0x00000024   Code   RO         2101    i.fputc             bsp_usart1.o
    0x08003d98   0x00000050   Code   RO         3617    i.free              mc_w.l(malloc.o)
    0x08003de8   0x00000040   Code   RO         1891    i.gps_info          gps_config.o
    0x08003e28   0x000001fc   Code   RO         1550    i.main              main.o
    0x08004024   0x0000006c   Code   RO         3618    i.malloc            mc_w.l(malloc.o)
    0x08004090   0x00000070   Code   RO         2796    i.nmea_BDGSA2info   parse.o
    0x08004100   0x00000074   Code   RO         2797    i.nmea_BDGSV2info   parse.o
    0x08004174   0x00000066   Code   RO         2798    i.nmea_GNGGA2info   parse.o
    0x080041da   0x0000007a   Code   RO         2799    i.nmea_GNGLL2info   parse.o
    0x08004254   0x000000a4   Code   RO         2800    i.nmea_GNRMC2info   parse.o
    0x080042f8   0x00000032   Code   RO         2801    i.nmea_GNVTG2info   parse.o
    0x0800432a   0x00000018   Code   RO         2802    i.nmea_GNZDA2info   parse.o
    0x08004342   0x00000062   Code   RO         2803    i.nmea_GPGGA2info   parse.o
    0x080043a4   0x0000006e   Code   RO         2804    i.nmea_GPGSA2info   parse.o
    0x08004412   0x00000072   Code   RO         2805    i.nmea_GPGSV2info   parse.o
    0x08004484   0x00000094   Code   RO         2806    i.nmea_GPRMC2info   parse.o
    0x08004518   0x00000090   Code   RO         2807    i.nmea_GPTXT2info   parse.o
    0x080045a8   0x00000022   Code   RO         2808    i.nmea_GPVTG2info   parse.o
    0x080045ca   0x0000002c   Code   RO         3164    i.nmea_atof         tok.o
    0x080045f6   0x0000002e   Code   RO         3165    i.nmea_atoi         tok.o
    0x08004624   0x0000036c   Code   RO         1777    i.nmea_decode_test  nema_decode_test.o
    0x08004990   0x0000003e   Code   RO         2374    i.nmea_error        context.o
    0x080049ce   0x0000007c   Code   RO         2809    i.nmea_find_tail    parse.o
    0x08004a4a   0x0000003e   Code   RO         2375    i.nmea_info         context.o
    0x08004a88   0x0000005c   Code   RO         2683    i.nmea_ndeg2degree  gmath.o
    0x08004ae4   0x00000104   Code   RO         2810    i.nmea_pack_type    parse.o
    0x08004be8   0x000000f8   Code   RO         2990    i.nmea_parse        parser.o
    0x08004ce0   0x000000d4   Code   RO         2811    i.nmea_parse_BDGSA  parse.o
    0x08004db4   0x000000bc   Code   RO         2812    i.nmea_parse_BDGSV  parse.o
    0x08004e70   0x000000f4   Code   RO         2813    i.nmea_parse_GNGGA  parse.o
    0x08004f64   0x000000c0   Code   RO         2814    i.nmea_parse_GNGLL  parse.o
    0x08005024   0x000000f8   Code   RO         2815    i.nmea_parse_GNRMC  parse.o
    0x0800511c   0x000000e4   Code   RO         2816    i.nmea_parse_GNVTG  parse.o
    0x08005200   0x000000c0   Code   RO         2817    i.nmea_parse_GNZDA  parse.o
    0x080052c0   0x000000f4   Code   RO         2818    i.nmea_parse_GPGGA  parse.o
    0x080053b4   0x000000d4   Code   RO         2819    i.nmea_parse_GPGSA  parse.o
    0x08005488   0x000000bc   Code   RO         2820    i.nmea_parse_GPGSV  parse.o
    0x08005544   0x000000f8   Code   RO         2821    i.nmea_parse_GPRMC  parse.o
    0x0800563c   0x00000074   Code   RO         2822    i.nmea_parse_GPTXT  parse.o
    0x080056b0   0x000000dc   Code   RO         2823    i.nmea_parse_GPVTG  parse.o
    0x0800578c   0x00000008   Code   RO         2991    i.nmea_parser_buff_clear  parser.o
    0x08005794   0x00000050   Code   RO         2994    i.nmea_parser_init  parser.o
    0x080057e4   0x00000024   Code   RO         2996    i.nmea_parser_pop   parser.o
    0x08005808   0x0000002c   Code   RO         2997    i.nmea_parser_push  parser.o
    0x08005834   0x00000400   Code   RO         2999    i.nmea_parser_real_push  parser.o
    0x08005c34   0x00000008   Code   RO         2376    i.nmea_property     context.o
    0x08005c3c   0x000001b4   Code   RO         3168    i.nmea_scanf        tok.o
    0x08005df0   0x00000016   Code   RO         3146    i.nmea_time_now     time.o
    0x08005e06   0x0000001c   Code   RO         2378    i.nmea_trace_buff   context.o
    0x08005e22   0x0000001e   Code   RO         2780    i.nmea_zero_INFO    info.o
    0x08005e40   0x0000001c   Code   RO         3297    i.strtod            m_ws.l(strtod.o)
    0x08005e5c   0x00000002   Code   RO         1892    i.trace             gps_config.o
    0x08005e5e   0x00000002   PAD
    0x08005e60   0x0000003c   Code   RO         2137    i.u2_printf         bsp_usart2.o
    0x08005e9c   0x00000818   Data   RO         2286    .constdata          oled_i2c.o
    0x080066b4   0x00000081   Data   RO         3312    .constdata          mc_w.l(ctype_o.o)
    0x08006735   0x00000003   PAD
    0x08006738   0x00000004   Data   RO         3313    .constdata          mc_w.l(ctype_o.o)
    0x0800673c   0x00000060   Data   RO         1958    .conststring        bsp_ec20.o
    0x0800679c   0x000000ee   Data   RO         2825    .conststring        parse.o
    0x0800688a   0x00000002   PAD
    0x0800688c   0x00000020   Data   RO         3778    Region$$Table       anon$$obj.o


    Execution Region RW_IRAM1 (Base: 0x20000000, Size: 0x000030f8, Max: 0x00010000, ABSOLUTE, COMPRESSED[0x00000228])

    Base Addr    Size         Type   Attr      Idx    E Section Name        Object

    0x20000000   0x00000014   Data   RW           28    .data               system_stm32f10x.o
    0x20000014   0x00000014   Data   RW          653    .data               stm32f10x_rcc.o
    0x20000028   0x00000004   Data   RW         1551    .data               main.o
    0x2000002c   0x00000004   Data   RW         1688    .data               stm32f10x_it.o
    0x20000030   0x00000028   Data   RW         1778    .data               nema_decode_test.o
    0x20000058   0x00000004   Data   RW         1798    .data               bsp_systick.o
    0x2000005c   0x00000001   Data   RW         1894    .data               gps_config.o
    0x2000005d   0x00000001   Data   RW         1895    .data               gps_config.o
    0x2000005e   0x00000002   PAD
    0x20000060   0x00000018   Data   RW         1959    .data               bsp_ec20.o
    0x20000078   0x00000002   Data   RW         2103    .data               bsp_usart1.o
    0x2000007a   0x00000002   Data   RW         2140    .data               bsp_usart2.o
    0x2000007c   0x00000260   Data   RW         2287    .data               oled_i2c.o
    0x200002dc   0x00000010   Data   RW         2379    .data               context.o
    0x200002ec   0x00000034   Data   RW         2826    .data               parse.o
    0x20000320   0x00000004   Data   RW         3728    .data               mc_w.l(stdout.o)
    0x20000324   0x00000004   Data   RW         3739    .data               mc_w.l(mvars.o)
    0x20000328   0x00000004   Data   RW         3740    .data               mc_w.l(mvars.o)
    0x2000032c   0x00000004   Data   RW         3744    .data               mc_w.l(errno.o)
    0x20000330   0x00000200   Zero   RW         1893    .bss                gps_config.o
    0x20000530   0x000001fe   Zero   RW         1957    .bss                bsp_ec20.o
    0x2000072e   0x000000c8   Zero   RW         2102    .bss                bsp_usart1.o
    0x200007f6   0x00000400   Zero   RW         2138    .bss                bsp_usart2.o
    0x20000bf6   0x00000400   Zero   RW         2139    .bss                bsp_usart2.o
    0x20000ff6   0x00000100   Zero   RW         2824    .bss                parse.o
    0x200010f6   0x00000002   PAD
    0x200010f8   0x00001000   Zero   RW            2    HEAP                startup_stm32f10x_hd.o
    0x200020f8   0x00001000   Zero   RW            1    STACK               startup_stm32f10x_hd.o


==============================================================================

Image component sizes


      Code (inc. data)   RO Data    RW Data    ZI Data      Debug   Object Name

       384         30          0          0          0       3906   bsp_dht11.o
       126         12          0          0          0       1609   bsp_dma.o
      2184        918         96         24        510       8242   bsp_ec20.o
       180          8          0          0          0       1206   bsp_exti.o
        96          4          0          0          0        574   bsp_led.o
       120         20          0          4          0      17505   bsp_systick.o
       152         12          0          0          0       1743   bsp_tim.o
       224         16          0          2        200       2498   bsp_usart1.o
       280         22          0          2       2048       3279   bsp_usart2.o
       160          4          0         16          0       3915   context.o
         0          0          0          0          0       4492   core_cm3.o
       120         26          0          0          0       1674   core_delay.o
         0          0          0          0          0       3928   generate.o
        92          8          0          0          0        619   gmath.o
       734         46          0          2        512       6873   gps_config.o
        30          0          0          0          0       2225   info.o
       536        260          0          4          0      20980   main.o
       120         14          0          0          0       1727   misc.o
       742         38          0          0          0       8110   mlx90614.o
       876        382          0         40          0       1342   nema_decode_test.o
      1090         66       2072        608          0       8976   oled_i2c.o
      4614       1154        238         52        256      24205   parse.o
      1440         52          0          0          0       6510   parser.o
        36          8        304          0       8192        888   startup_stm32f10x_hd.o
       416         28          0          0          0       6376   stm32f10x_dma.o
       160         16          0          0          0       2436   stm32f10x_exti.o
       228          6          0          0          0       4646   stm32f10x_gpio.o
       360         10          0          0          0       7278   stm32f10x_i2c.o
       500        104          0          4          0       8523   stm32f10x_it.o
       256         36          0         20          0       5474   stm32f10x_rcc.o
       234         42          0          0          0       4563   stm32f10x_tim.o
       380          6          0          0          0       7520   stm32f10x_usart.o
       260         26          0         20          0     271265   system_stm32f10x.o
        22          0          0          0          0       1476   time.o
       526          0          0          0          0       2929   tok.o

    ----------------------------------------------------------------------
     17710       3374       2744        800      11720     459512   Object Totals
         0          0         32          0          0          0   (incl. Generated)
        32          0          2          2          2          0   (incl. Padding)

    ----------------------------------------------------------------------

      Code (inc. data)   RO Data    RW Data    ZI Data      Debug   Library Member Name

        28          0          0          0          0         80   strtod.o
        86          0          0          0          0          0   __dczerorl2.o
        28          0          0          0          0         68   _chval.o
        64          0          0          0          0         84   _sgetc.o
       158          0          0          0          0         92   _strtoul.o
         8          4        133          0          0         68   ctype_o.o
         0          0          0          0          0          0   entry.o
         0          0          0          0          0          0   entry10a.o
         0          0          0          0          0          0   entry11a.o
         8          4          0          0          0          0   entry2.o
         4          0          0          0          0          0   entry5.o
         0          0          0          0          0          0   entry7b.o
         0          0          0          0          0          0   entry8b.o
         8          4          0          0          0          0   entry9a.o
         8          4          0          4          0         68   errno.o
        30          0          0          0          0          0   handlers.o
        36          8          0          0          0         68   init.o
        18          0          0          0          0         76   isspace_o.o
         0          0          0          0          0          0   iusefp.o
        30          0          0          0          0         68   llshl.o
        36          0          0          0          0         68   llsshr.o
        32          0          0          0          0         68   llushr.o
       188         20          0          0          0        160   malloc.o
        20          0          0          0          0         68   memchr.o
        26          0          0          0          0         80   memcmp.o
        36          0          0          0          0         68   memcpya.o
        36          0          0          0          0        108   memseta.o
         0          0          0          8          0          0   mvars.o
      2370        106          0          0          0        824   printfa.o
       838         12          0          0          0        216   scanf_fp.o
         0          0          0          4          0          0   stdout.o
        14          0          0          0          0         68   strlen.o
        36          0          0          0          0         80   strstr.o
       156         14          0          0          0        120   strtod.o
       112          0          0          0          0         88   strtol.o
        44          0          0          0          0         80   uidiv.o
        98          0          0          0          0         92   uldiv.o
        48          0          0          0          0         68   cdrcmple.o
        56          0          0          0          0         88   d2f.o
       334          0          0          0          0        148   dadd.o
       222          0          0          0          0        100   ddiv.o
       186          0          0          0          0        176   depilogue.o
        62          0          0          0          0         80   dfixi.o
        48          0          0          0          0         68   dfixul.o
        34          0          0          0          0         76   dflti.o
        26          0          0          0          0         76   dfltui.o
        24          0          0          0          0         76   dfltul.o
       228          0          0          0          0         96   dmul.o
        38          0          0          0          0         68   f2d.o
       176          0          0          0          0        140   fadd.o
       110          0          0          0          0        168   fepilogue.o
        40          0          0          0          0         68   ffixui.o
        10          0          0          0          0         68   ffltui.o

    ----------------------------------------------------------------------
      6206        176        136         16          0       4424   Library Totals
         8          0          3          0          0          0   (incl. Padding)

    ----------------------------------------------------------------------

      Code (inc. data)   RO Data    RW Data    ZI Data      Debug   Library Name

        28          0          0          0          0         80   m_ws.l
      4528        176        133         16          0       2780   mc_w.l
      1642          0          0          0          0       1564   mf_w.l

    ----------------------------------------------------------------------
      6206        176        136         16          0       4424   Library Totals

    ----------------------------------------------------------------------

==============================================================================


      Code (inc. data)   RO Data    RW Data    ZI Data      Debug   

     23916       3550       2880        816      11720     452728   Grand Totals
     23916       3550       2880        552      11720     452728   ELF Image Totals (compressed)
     23916       3550       2880        552          0          0   ROM Totals

==============================================================================

    Total RO  Size (Code + RO Data)                26796 (  26.17kB)
    Total RW  Size (RW Data + ZI Data)             12536 (  12.24kB)
    Total ROM Size (Code + RO Data + RW Data)      27348 (  26.71kB)

==============================================================================

